/tmp/tmpXX6pQHE1.asm:
     1                          MODULE testesp_c
     2                          LINE 0, "testesp.c"
testesp.c:
                                
     1                          ;* * * * *  Small-C/Plus z88dk * * * * *
     2                          ;  Version: 19460-7def40868-20220403
     3                          ;
     4                          ;	Reconstructed for z80 Module Assembler
     5                          ;
     6                          ;	Module compile time: Mon Aug 21 14:15:07 2023
     7                          
     8                          
     9                          	C_LINE	0,"testesp.c"
                                
                                	MODULE	testesp_c
                                
                                
                                	INCLUDE "z80_crt0.hdr"
/usr/local/share/z88dk/lib/z80_crt0.hdr:
     1                          ;
     2                          ;	Header file which contains all required variables from the
     3                          ;	startup that need to be exposed to individual C files
     4                          ;
     5                          ;	Stick in this file any routines which are needed or implicitly
     6                          ;	implied by sccz80.
     7                          ;
     8                          ;	This file is included by every module
     9                          ;	To handle multi module programs which use floating point
    10                          ;	routines in different modules, we have got rid of
    11                          ;	the conditional assembly around the float routines
    12                          
    13                          
    14                          	EXTERN	base_graphics	; Address of graphics screen
    15                          
    16                          	EXTERN	_cpfar2near	; Far->near conversion (z88)
    17                          	EXTERN	packintrout	; Process interrupt (z88 apps)
    18                          
    19                          	EXTERN	l_dcal		; jp(hl)
    20                          	EXTERN	cleanup		; cleanup before program exit
    21                          
    22                          
    23                          	EXTERN	l_jphl		; another jp(hl)
    24                          	EXTERN	l_jpix		; jp(ix)
    25                          	EXTERN	l_jpiy		; jp(iy)
    26                          
    27                          	EXTERN	l_ldi
    28                          	EXTERN	l_ldi_128
    29                          	EXTERN	l_ldi_256
    30                          
    31                          	EXTERN	l_outi
    32                          	EXTERN	l_outi_128
    33                          	EXTERN	l_outi_256
    34                          
    35                          	EXTERN	l_ini
    36                          	EXTERN	l_ini_128
    37                          	EXTERN	l_ini_256
    38                          	EXTERN	l_ini_512
    39                          
    40                          
    41                          	; Used for banked calls for __banked for sccz80 + sdcc
    42                          	EXTERN	banked_call
    43                          
    44                          
    45                          ;------------------------------------
    46                          ; Scopes for integer library routines
    47                          ;------------------------------------
    48                          
    49                          	EXTERN	l_getptr	;Get 3 byte pointer
    50                          	EXTERN	l_putptr	;Put 3 byte pointer
    51                          	EXTERN	l_gchar		;Get signed char
    52                          	EXTERN	l_gcharsp	;Get signed char  (peephole opt)
    53                          	EXTERN	l_gcharspsp	;Get signed char and push  (peephole opt)
    54                          	EXTERN	l_g2charspsp	;Get 2 signed char and push  (peephole opt)
    55                          	EXTERN	l_sxt		;Sign extend char
    56                          	EXTERN	l_gint		;Get int ld hl,(hl)
    57                          	EXTERN	l_gintsp	;Get int (peephole opt)
    58                          	EXTERN	l_gintspchar	;Get int,char (peephole opt)
    59                          	EXTERN	l_gintspsp	;Get int and push (peephole opt)
    60                          	EXTERN	l_g2intspsp	;Get 2 int and push (peephole opt)
    61                          	EXTERN	l_gintsp2de	;Get int, multiply by 2 and add from SP by de
    62                          	EXTERN	l_gint7de	;Get int, multiply by 7 and add from SP by de
    63                          	EXTERN	l_gint_eq	;Get int and test == 0
    64                          	EXTERN	l_ghtonsint	;Get reverse order int
    65                          	EXTERN	l_pint		;Put int: ld (de),hl
    66                          	EXTERN	l_pint_eq	;Put int and test == 0
    67                          	EXTERN	l_pint_pop	;Put int and pop place address
    68                          	EXTERN	l_or		;Int logical or
    69                          	EXTERN	l_xor		;Int logical xor
    70                          	EXTERN	l_and		;Int logical and
    71                          	EXTERN	l_eq		;Int equality
    72                          	EXTERN	l_ne		;Int inequality
    73                          	EXTERN	l_gt		;Int signed de >  hl
    74                          	EXTERN	l_le		;Int signed de <= hl
    75                          	EXTERN	l_ge		;Int signed de >= hl
    76                          	EXTERN	l_lt		;Int signed de <  hl
    77                          	EXTERN	l_uge		;Int unsigned de >= hl
    78                          	EXTERN	l_ult		;Int unsigned de <  hl
    79                          	EXTERN	l_ugt		;Int unsigned de >  hl
    80                          	EXTERN	l_ule		;Int unsigned de <= hl
    81                          	EXTERN	l_cmp		;Int signed compare
    82                          	EXTERN	l_ucmp		;Int unsigned compare
    83                          	EXTERN	l_asr		;Int signed de >> hl
    84                          	EXTERN	l_asr_hl_by_e	;Int signed hl >> e
    85                          	EXTERN	l_asr_u		;Int unsigned de >> hl
    86                          	EXTERN	l_asr_u_hl_by_e	;Int unsigned hl >> e
    87                          	EXTERN	l_asl		;Int de << hl
    88                          	EXTERN	l_sub		;Int subtract hl = de - hl
    89                          	EXTERN	l_neg		;Int negate
    90                          	EXTERN	l_com		;Int ~
    91                          	EXTERN	l_lneg		;Int logical negate
    92                          	EXTERN	l_bool		;Int boolean test
    93                          	EXTERN	l_cm_de	;
    94                          	EXTERN	l_cm_bc
    95                          	EXTERN	l_deneg
    96                          	EXTERN	l_bcneg
    97                          	EXTERN	l_case		;Integer case
    98                          	EXTERN	l_mult		;Integer hl = hl * de
    99                          	EXTERN	l_mult_u	;Integer unsigned *
   100                          	EXTERN	l_div		;Integer signed / hl=de/hl, de=de%hl
   101                          	EXTERN	l_div_u		;Integer unsigned /
   102                          	EXTERN	l_mod		;Integer % (for gbz80) hl=de%hl
   103                          	EXTERN	l_mod_u		;Integer unsigned % (for gbz80)
   104                          
   105                          ;------------------
   106                          ;Long functions now
   107                          ;------------------
   108                          
   109                          	EXTERN	lpush2		;Push a long under the stack
   110                          	EXTERN	l_int2long_s	;Int->long signed conversion
   111                          	EXTERN	l_int2long_s_float	;Int->long->float signed conversion (optimizer: use -O3)
   112                          	EXTERN	l_int2long_u_float	;uInt->ulong->float signed conversion
   113                          	EXTERN	l_glong		;Get long
   114                          	EXTERN	l_glongsp	;Get long (peephole opt)
   115                          	EXTERN	l_glonghlp	;Get pointer, then get long
   116                          	EXTERN	l_glong2sp	;Get long and copy on stack (peephole opt)
   117                          	EXTERN	l_glong2sp_hlp
   118                          	EXTERN	l_long_add
   119                          	EXTERN	l_long_and
   120                          	EXTERN	l_long_asl
   121                          	EXTERN	l_long_asr
   122                          	EXTERN	l_long_aslo	;Long << shift in c
   123                          	EXTERN	l_long_asro	;Long >> shift in c (signed)
   124                          	EXTERN	l_long_bool
   125                          	EXTERN	l_long_cmp
   126                          	EXTERN	l_long_com
   127                          	EXTERN	l_long_eq
   128                          	EXTERN	l_long_ge
   129                          	EXTERN	l_long_gt
   130                          	EXTERN	l_long_le
   131                          	EXTERN	l_long_lneg
   132                          	EXTERN	l_long_lt
   133                          	EXTERN	l_long_ne
   134                          	EXTERN	l_long_neg
   135                          	EXTERN	l_long_or
   136                          	EXTERN	l_long_sub
   137                          	EXTERN	l_long_ucmp
   138                          	EXTERN	l_long_uge
   139                          	EXTERN	l_long_ugt
   140                          	EXTERN	l_long_ule
   141                          	EXTERN	l_long_ult
   142                          	EXTERN	l_long_xor
   143                          	EXTERN	l_plong
   144                          	EXTERN	l_inclong	;Increment long
   145                          	EXTERN	l_declong	;Decrement long
   146                          	EXTERN	l_long_div
   147                          	EXTERN	l_long_div_u
   148                          	EXTERN	l_long_mod
   149                          	EXTERN	l_long_mod_u
   150                          	EXTERN	l_long_mult
   151                          	EXTERN	l_long_mult_u
   152                          	EXTERN	l_long_asr_u	;Long unsigned >>
   153                          	EXTERN	l_long_asr_uo	;Long unsigned >> shift in c
   154                          	EXTERN	l_long_case
   155                          
   156                          ;--------------------------------------------------------------
   157                          ; Floating point support routines, mostly in library
   158                          ;--------------------------------------------------------------
   159                          
   160                          	EXTERN	dadd
   161                          	EXTERN	ddiv
   162                          	EXTERN	dsub
   163                          	EXTERN	dmul
   164                          
   165                          	EXTERN	dge
   166                          	EXTERN	dgt
   167                          	EXTERN	dleq
   168                          	EXTERN	dlt
   169                          	EXTERN	deq
   170                          	EXTERN	dne
   171                          
   172                          	EXTERN	minusfa		;FA=-FA
   173                          
   174                          	EXTERN	dswap		;Exchange FA with top of stack
   175                          	EXTERN	float		;Convert int to float
   176                          	EXTERN	ufloat		;unsigned int to float
   177                          	EXTERN	ifix		;Convert float to int
   178                          
   179                          	EXTERN	dstore		;FA->(de)
   180                          	EXTERN	dload		;FA<-(hl)
   181                          	EXTERN	dldpsh		;(hl)->(stack)
   182                          	EXTERN	dpush		;FA->(stack)
   183                          	EXTERN	dpush2		;FA->(stack under)
   184                          	EXTERN	dpush3		;FA->(stack under,long)
   185                          
   186                          	EXTERN	fa		;may not be needed in this file
   187                          	EXTERN	extra		;ditto
   188                          	EXTERN	__atof2		;string->fa conversion
   189                          	EXTERN	l_f48_ldexp	;FA * pow2(N)
   190                          	EXTERN	l_f48_f16tof	;Convert _Float16 to float
   191                          	EXTERN	l_f48_ftof16	;Convert float to _Float16
   192                          
   193                          	; 16 bit float ABI
   194                          	EXTERN	l_f16_add
   195                          	EXTERN	l_f16_sub
   196                          	EXTERN	l_f16_mul
   197                          	EXTERN	l_f16_div
   198                          	EXTERN	l_f16_le
   199                          	EXTERN	l_f16_lt
   200                          	EXTERN	l_f16_ge
   201                          	EXTERN	l_f16_gt
   202                          	EXTERN	l_f16_eq
   203                          	EXTERN	l_f16_ne
   204                          	EXTERN	l_f16_swap
   205                          	EXTERN	l_f16_schar2f
   206                          	EXTERN	l_f16_uchar2f
   207                          	EXTERN	l_f16_sint2f
   208                          	EXTERN	l_f16_uint2f
   209                          	EXTERN	l_f16_slong2f
   210                          	EXTERN	l_f16_ulong2f
   211                          	EXTERN	l_f16_f2sint
   212                          	EXTERN	l_f16_f2uint
   213                          	EXTERN	l_f16_f2slong
   214                          	EXTERN	l_f16_f2ulong
   215                          	EXTERN	l_f16_ldexp
   216                          	EXTERN	l_f16_invf	;Only for ieee16
   217                          	EXTERN	l_f16_f16tof	;A noop
   218                          	EXTERN	l_f16_ftof16	;A noop
   219                          
   220                          	; 32 bit float ABI
   221                          	EXTERN	l_f32_add
   222                          	EXTERN	l_f32_sub
   223                          	EXTERN	l_f32_mul
   224                          	EXTERN	l_f32_div
   225                          	EXTERN	l_f32_le
   226                          	EXTERN	l_f32_lt
   227                          	EXTERN	l_f32_ge
   228                          	EXTERN	l_f32_gt
   229                          	EXTERN	l_f32_eq
   230                          	EXTERN	l_f32_ne
   231                          	EXTERN	l_f32_swap
   232                          	EXTERN	l_f32_negate
   233                          	EXTERN	l_f32_schar2f
   234                          	EXTERN	l_f32_uchar2f
   235                          	EXTERN	l_f32_sint2f
   236                          	EXTERN	l_f32_uint2f
   237                          	EXTERN	l_f32_slong2f
   238                          	EXTERN	l_f32_ulong2f
   239                          	EXTERN	l_f32_f2sint
   240                          	EXTERN	l_f32_f2uint
   241                          	EXTERN	l_f32_f2slong
   242                          	EXTERN	l_f32_f2ulong
   243                          	EXTERN	l_f32_ldexp
   244                          	EXTERN	l_f32_invf	;Only for math32
   245                          	EXTERN	l_f32_f16tof	;Convert _Float16 to float
   246                          	EXTERN	l_f32_ftof16	;Convert float to _Float16
   247                          
   248                          	; 64 bit float ABI
   249                          	EXTERN	l_f64_load
   250                          	EXTERN	l_f64_add
   251                          	EXTERN	l_f64_sub
   252                          	EXTERN	l_f64_mul
   253                          	EXTERN	l_f64_div
   254                          	EXTERN	l_f64_le
   255                          	EXTERN	l_f64_lt
   256                          	EXTERN	l_f64_ge
   257                          	EXTERN	l_f64_gt
   258                          	EXTERN	l_f64_eq
   259                          	EXTERN	l_f64_ne
   260                          	EXTERN	l_f64_negate
   261                          	EXTERN	l_f64_swap
   262                          	EXTERN	l_f64_store
   263                          	EXTERN	l_f64_dpush
   264                          	EXTERN	l_f64_dldpsh
   265                          	EXTERN	l_f64_dpush2
   266                          	EXTERN	l_f64_dpush3
   267                          	EXTERN	l_f64_schar2f
   268                          	EXTERN	l_f64_uchar2f
   269                          	EXTERN	l_f64_sint2f
   270                          	EXTERN	l_f64_uint2f
   271                          	EXTERN	l_f64_slong2f
   272                          	EXTERN	l_f64_ulong2f
   273                          	EXTERN	l_f64_f2sint
   274                          	EXTERN	l_f64_f2uint
   275                          	EXTERN	l_f64_f2slong
   276                          	EXTERN	l_f64_f2ulong
   277                          	EXTERN	l_f64_ldexp
   278                          	EXTERN	l_f64_f16tof	;Convert _Float16 to float
   279                          	EXTERN	l_f64_ftof16	;Convert float to _Float16
   280                          
   281                          
   282                          ;--------------------------------------------------
   283                          ; Routines for picking up variables from far memory
   284                          ;--------------------------------------------------
   285                          
   286                          	EXTERN	lp_gchar
   287                          	EXTERN	lp_gdoub
   288                          	EXTERN	lp_gint
   289                          	EXTERN	lp_glong
   290                          	EXTERN	lp_gptr
   291                          	EXTERN	lp_pchar
   292                          	EXTERN	lp_pdoub
   293                          	EXTERN	lp_pint
   294                          	EXTERN	lp_plong
   295                          	EXTERN	lp_pptr
   296                          
   297                          	EXTERN	l_farcall	; Long call
   298                          
   299                          
   300                          ;--------------------------------------------------
   301                          ; Routines for handling 64 bit integers for sccz80
   302                          ;--------------------------------------------------
   303                          
   304                          	EXTERN	__i64_acc
   305                          	EXTERN	l_i64_load
   306                          	EXTERN	l_i64_store
   307                          	EXTERN	l_i64_push
   308                          	EXTERN	l_i64_add
   309                          	EXTERN	l_i64_sub
   310                          	EXTERN	l_i64_mult
   311                          	EXTERN	l_i64_mult_u
   312                          	EXTERN	l_i64_mod
   313                          	EXTERN	l_i64_mod_u
   314                          	EXTERN	l_i64_div
   315                          	EXTERN	l_i64_div_u
   316                          	EXTERN	l_i64_or
   317                          	EXTERN	l_i64_xor
   318                          	EXTERN	l_i64_and
   319                          	EXTERN	l_i64_asr_u
   320                          	EXTERN	l_i64_asr_uo
   321                          	EXTERN	l_i64_asr
   322                          	EXTERN	l_i64_asro
   323                          	EXTERN	l_i64_asl
   324                          	EXTERN	l_i64_aslo
   325                          	EXTERN	l_i64_inc
   326                          	EXTERN	l_i64_dec
   327                          	EXTERN	l_i64_eq0
   328                          	EXTERN	l_i64_eq
   329                          	EXTERN	l_i64_ne
   330                          	EXTERN	l_i64_ge
   331                          	EXTERN	l_i64_gt
   332                          	EXTERN	l_i64_uge
   333                          	EXTERN	l_i64_ugt
   334                          	EXTERN	l_i64_le
   335                          	EXTERN	l_i64_lt
   336                          	EXTERN	l_i64_ule
   337                          	EXTERN	l_i64_ult
   338                          	EXTERN	l_i64_lneg
   339                          	EXTERN	l_i64_neg
   340                          	EXTERN	l_i64_com
   341                          	EXTERN	l_i64_case
   342                          	EXTERN	l_i64_push_under_int
   343                          	EXTERN	l_i64_push_under_int_mhl
   344                          	EXTERN	l_i64_copy
   345                          	EXTERN	l_i64_slong2i64
   346                          	EXTERN	l_i64_ulong2i64
   347                          	EXTERN	l_i64_sint2i64
   348                          	EXTERN	l_i64_uint2i64
   349                          	EXTERN	l_i64_u64_toi32
   350                          
   351                          
   352                          ;-------------------
   353                          ; Routines for SDCC
   354                          ;-------------------
   355                          
   356                          	EXTERN	__divsint_rrx_s
   357                          	EXTERN	__divsint_rrx_hds
   358                          	EXTERN	__divuint_rrx_s
   359                          	EXTERN	__divuint_rrx_hds
   360                          	EXTERN	__divsuchar_rrx_s
   361                          	EXTERN	__divuschar_rrx_s
   362                          	EXTERN	__divuchar_rrx_s
   363                          	EXTERN	__divuchar_rrx_hds
   364                          	EXTERN	__moduchar_rrx_s
   365                          	EXTERN	__moduchar_rrx_hds
   366                          	EXTERN	__moduschar_rrx_s
   367                          	EXTERN	__modsuchar_rrx_s
   368                          	EXTERN	__modschar_rrx_s
   369                          	EXTERN	__modschar_rrx_hds
   370                          	EXTERN	__modsint_rrx_s
   371                          	EXTERN	__modsint_rrx_hds
   372                          	EXTERN	__moduint_rrx_s
   373                          	EXTERN	__moduint_rrx_hds
   374                          	EXTERN	__get_remainder
   375                          	EXTERN	__divunsigned
   376                          	EXTERN	__div_signexte
   377                          	EXTERN	__divu16
   378                          	EXTERN	__div16
   379                          	EXTERN	__div8
   380                          	EXTERN	__muluchar_rrx_s
   381                          	EXTERN	__muluchar_rrx_hds
   382                          	EXTERN	__mulsuchar_rrx_s
   383                          	EXTERN	__muluschar_rrx_s
   384                          	EXTERN	__mulschar_rrx_s
   385                          	EXTERN	__mulschar_rrx_hds
   386                          	EXTERN	__mulint_rrx_s
   387                          	EXTERN	__mulint_rrx_hds
   388                          	EXTERN	__mul16
   389                          	EXTERN	__rrulong_rrx_s
   390                          	EXTERN	__rrslong_rrx_s
   391                          	EXTERN	__rlslong_rrx_s
   392                          	EXTERN	__rlulong_rrx_s
   393                          	EXTERN	__muluchar
   394                          	EXTERN	__mulschar
   395                          
   396                          	EXTERN	l_push_di
   397                          	EXTERN	l_pop_ei
   398                          
   399                          	EXTERN	l_debug_push_frame
   400                          	EXTERN	l_debug_pop_frame
   401                          
   402                          
testesp.c:
                                
                                
                                	C_LINE	0,"/usr/local/share/z88dk//include/stdio.h"
/usr/local/share/z88dk//include/stdio.h:
                                	C_LINE	0,"/usr/local/share/z88dk//include/sys/compiler.h"
/usr/local/share/z88dk//include/sys/compiler.h:
                                	C_LINE	4,"/usr/local/share/z88dk//include/stdio.h"
/usr/local/share/z88dk//include/stdio.h:
     4                          	C_LINE	0,"/usr/local/share/z88dk//include/stdint.h"
/usr/local/share/z88dk//include/stdint.h:
                                	C_LINE	0,"/usr/local/share/z88dk//include/sys/types.h"
/usr/local/share/z88dk//include/sys/types.h:
                                	C_LINE	17,"/usr/local/share/z88dk//include/sys/types.h"
    17                          	C_LINE	26,"/usr/local/share/z88dk//include/sys/types.h"
    26                          	C_LINE	35,"/usr/local/share/z88dk//include/sys/types.h"
    35                          	C_LINE	40,"/usr/local/share/z88dk//include/sys/types.h"
    40                          	C_LINE	45,"/usr/local/share/z88dk//include/sys/types.h"
    45                          	C_LINE	50,"/usr/local/share/z88dk//include/sys/types.h"
    50                          	C_LINE	55,"/usr/local/share/z88dk//include/sys/types.h"
    55                          	C_LINE	60,"/usr/local/share/z88dk//include/sys/types.h"
    60                          	C_LINE	65,"/usr/local/share/z88dk//include/sys/types.h"
    65                          	C_LINE	70,"/usr/local/share/z88dk//include/sys/types.h"
    70                          	C_LINE	75,"/usr/local/share/z88dk//include/sys/types.h"
    75                          	C_LINE	80,"/usr/local/share/z88dk//include/sys/types.h"
    80                          	C_LINE	85,"/usr/local/share/z88dk//include/sys/types.h"
    85                          	C_LINE	89,"/usr/local/share/z88dk//include/sys/types.h"
    89                          	C_LINE	90,"/usr/local/share/z88dk//include/sys/types.h"
    90                          	C_LINE	91,"/usr/local/share/z88dk//include/sys/types.h"
    91                          	C_LINE	93,"/usr/local/share/z88dk//include/sys/types.h"
    93                          	C_LINE	94,"/usr/local/share/z88dk//include/sys/types.h"
    94                          	C_LINE	95,"/usr/local/share/z88dk//include/sys/types.h"
    95                          	C_LINE	101,"/usr/local/share/z88dk//include/sys/types.h"
   101                          	C_LINE	106,"/usr/local/share/z88dk//include/sys/types.h"
   106                          	C_LINE	11,"/usr/local/share/z88dk//include/stdint.h"
/usr/local/share/z88dk//include/stdint.h:
    11                          	C_LINE	13,"/usr/local/share/z88dk//include/stdint.h"
    13                          	C_LINE	14,"/usr/local/share/z88dk//include/stdint.h"
    14                          	C_LINE	15,"/usr/local/share/z88dk//include/stdint.h"
    15                          	C_LINE	17,"/usr/local/share/z88dk//include/stdint.h"
    17                          	C_LINE	18,"/usr/local/share/z88dk//include/stdint.h"
    18                          	C_LINE	19,"/usr/local/share/z88dk//include/stdint.h"
    19                          	C_LINE	21,"/usr/local/share/z88dk//include/stdint.h"
    21                          	C_LINE	22,"/usr/local/share/z88dk//include/stdint.h"
    22                          	C_LINE	23,"/usr/local/share/z88dk//include/stdint.h"
    23                          	C_LINE	25,"/usr/local/share/z88dk//include/stdint.h"
    25                          	C_LINE	26,"/usr/local/share/z88dk//include/stdint.h"
    26                          	C_LINE	27,"/usr/local/share/z88dk//include/stdint.h"
    27                          	C_LINE	29,"/usr/local/share/z88dk//include/stdint.h"
    29                          	C_LINE	30,"/usr/local/share/z88dk//include/stdint.h"
    30                          	C_LINE	31,"/usr/local/share/z88dk//include/stdint.h"
    31                          	C_LINE	33,"/usr/local/share/z88dk//include/stdint.h"
    33                          	C_LINE	34,"/usr/local/share/z88dk//include/stdint.h"
    34                          	C_LINE	35,"/usr/local/share/z88dk//include/stdint.h"
    35                          	C_LINE	37,"/usr/local/share/z88dk//include/stdint.h"
    37                          	C_LINE	38,"/usr/local/share/z88dk//include/stdint.h"
    38                          	C_LINE	40,"/usr/local/share/z88dk//include/stdint.h"
    40                          	C_LINE	41,"/usr/local/share/z88dk//include/stdint.h"
    41                          	C_LINE	43,"/usr/local/share/z88dk//include/stdint.h"
    43                          	C_LINE	44,"/usr/local/share/z88dk//include/stdint.h"
    44                          	C_LINE	49,"/usr/local/share/z88dk//include/stdint.h"
    49                          	C_LINE	52,"/usr/local/share/z88dk//include/stdint.h"
    52                          	C_LINE	54,"/usr/local/share/z88dk//include/stdint.h"
    54                          	C_LINE	55,"/usr/local/share/z88dk//include/stdint.h"
    55                          	C_LINE	5,"/usr/local/share/z88dk//include/stdio.h"
/usr/local/share/z88dk//include/stdio.h:
     5                          	C_LINE	0,"/usr/local/share/z88dk//include/cpm.h"
/usr/local/share/z88dk//include/cpm.h:
                                	C_LINE	21,"/usr/local/share/z88dk//include/cpm.h"
    21                          	C_LINE	52,"/usr/local/share/z88dk//include/cpm.h"
    52                          	C_LINE	78,"/usr/local/share/z88dk//include/cpm.h"
    78                          	C_LINE	93,"/usr/local/share/z88dk//include/cpm.h"
    93                          	C_LINE	131,"/usr/local/share/z88dk//include/cpm.h"
   131                          	C_LINE	132,"/usr/local/share/z88dk//include/cpm.h"
   132                          	C_LINE	137,"/usr/local/share/z88dk//include/cpm.h"
   137                          	C_LINE	140,"/usr/local/share/z88dk//include/cpm.h"
   140                          	C_LINE	141,"/usr/local/share/z88dk//include/cpm.h"
   141                          	C_LINE	144,"/usr/local/share/z88dk//include/cpm.h"
   144                          	C_LINE	145,"/usr/local/share/z88dk//include/cpm.h"
   145                          	C_LINE	147,"/usr/local/share/z88dk//include/cpm.h"
   147                          	C_LINE	154,"/usr/local/share/z88dk//include/cpm.h"
   154                          	C_LINE	157,"/usr/local/share/z88dk//include/cpm.h"
   157                          	C_LINE	166,"/usr/local/share/z88dk//include/cpm.h"
   166                          	C_LINE	167,"/usr/local/share/z88dk//include/cpm.h"
   167                          	C_LINE	168,"/usr/local/share/z88dk//include/cpm.h"
   168                          	C_LINE	171,"/usr/local/share/z88dk//include/cpm.h"
   171                          	C_LINE	172,"/usr/local/share/z88dk//include/cpm.h"
   172                          	C_LINE	174,"/usr/local/share/z88dk//include/cpm.h"
   174                          	C_LINE	175,"/usr/local/share/z88dk//include/cpm.h"
   175                          	C_LINE	176,"/usr/local/share/z88dk//include/cpm.h"
   176                          	C_LINE	177,"/usr/local/share/z88dk//include/cpm.h"
   177                          	C_LINE	178,"/usr/local/share/z88dk//include/cpm.h"
   178                          	C_LINE	179,"/usr/local/share/z88dk//include/cpm.h"
   179                          	C_LINE	187,"/usr/local/share/z88dk//include/cpm.h"
   187                          	C_LINE	189,"/usr/local/share/z88dk//include/cpm.h"
   189                          	C_LINE	191,"/usr/local/share/z88dk//include/cpm.h"
   191                          	C_LINE	193,"/usr/local/share/z88dk//include/cpm.h"
   193                          	C_LINE	195,"/usr/local/share/z88dk//include/cpm.h"
   195                          	C_LINE	197,"/usr/local/share/z88dk//include/cpm.h"
   197                          	C_LINE	199,"/usr/local/share/z88dk//include/cpm.h"
   199                          	C_LINE	202,"/usr/local/share/z88dk//include/cpm.h"
   202                          	C_LINE	209,"/usr/local/share/z88dk//include/cpm.h"
   209                          	C_LINE	211,"/usr/local/share/z88dk//include/cpm.h"
   211                          	C_LINE	214,"/usr/local/share/z88dk//include/cpm.h"
   214                          	C_LINE	216,"/usr/local/share/z88dk//include/cpm.h"
   216                          	C_LINE	218,"/usr/local/share/z88dk//include/cpm.h"
   218                          	C_LINE	228,"/usr/local/share/z88dk//include/cpm.h"
   228                          	C_LINE	237,"/usr/local/share/z88dk//include/cpm.h"
   237                          	C_LINE	303,"/usr/local/share/z88dk//include/cpm.h"
   303                          	C_LINE	306,"/usr/local/share/z88dk//include/cpm.h"
   306                          	C_LINE	310,"/usr/local/share/z88dk//include/cpm.h"
   310                          	C_LINE	313,"/usr/local/share/z88dk//include/cpm.h"
   313                          	C_LINE	316,"/usr/local/share/z88dk//include/cpm.h"
   316                          	C_LINE	319,"/usr/local/share/z88dk//include/cpm.h"
   319                          	C_LINE	324,"/usr/local/share/z88dk//include/cpm.h"
   324                          	C_LINE	330,"/usr/local/share/z88dk//include/cpm.h"
   330                          	C_LINE	331,"/usr/local/share/z88dk//include/cpm.h"
   331                          	C_LINE	335,"/usr/local/share/z88dk//include/cpm.h"
   335                          	C_LINE	336,"/usr/local/share/z88dk//include/cpm.h"
   336                          	C_LINE	340,"/usr/local/share/z88dk//include/cpm.h"
   340                          	C_LINE	341,"/usr/local/share/z88dk//include/cpm.h"
   341                          	C_LINE	346,"/usr/local/share/z88dk//include/cpm.h"
   346                          	C_LINE	481,"/usr/local/share/z88dk//include/cpm.h"
   481                          	C_LINE	30,"/usr/local/share/z88dk//include/stdio.h"
/usr/local/share/z88dk//include/stdio.h:
    30                          	C_LINE	0,"/usr/local/share/z88dk//include/fcntl.h"
/usr/local/share/z88dk//include/fcntl.h:
                                	C_LINE	34,"/usr/local/share/z88dk//include/fcntl.h"
    34                          	C_LINE	37,"/usr/local/share/z88dk//include/fcntl.h"
    37                          	C_LINE	38,"/usr/local/share/z88dk//include/fcntl.h"
    38                          	C_LINE	39,"/usr/local/share/z88dk//include/fcntl.h"
    39                          	C_LINE	40,"/usr/local/share/z88dk//include/fcntl.h"
    40                          	C_LINE	41,"/usr/local/share/z88dk//include/fcntl.h"
    41                          	C_LINE	42,"/usr/local/share/z88dk//include/fcntl.h"
    42                          	C_LINE	44,"/usr/local/share/z88dk//include/fcntl.h"
    44                          	C_LINE	45,"/usr/local/share/z88dk//include/fcntl.h"
    45                          	C_LINE	52,"/usr/local/share/z88dk//include/fcntl.h"
    52                          	C_LINE	53,"/usr/local/share/z88dk//include/fcntl.h"
    53                          	C_LINE	54,"/usr/local/share/z88dk//include/fcntl.h"
    54                          	C_LINE	57,"/usr/local/share/z88dk//include/fcntl.h"
    57                          	C_LINE	76,"/usr/local/share/z88dk//include/fcntl.h"
    76                          	C_LINE	85,"/usr/local/share/z88dk//include/fcntl.h"
    85                          	C_LINE	98,"/usr/local/share/z88dk//include/fcntl.h"
    98                          	C_LINE	99,"/usr/local/share/z88dk//include/fcntl.h"
    99                          	C_LINE	100,"/usr/local/share/z88dk//include/fcntl.h"
   100                          	C_LINE	74,"/usr/local/share/z88dk//include/stdio.h"
/usr/local/share/z88dk//include/stdio.h:
    74                          	C_LINE	87,"/usr/local/share/z88dk//include/stdio.h"
    87                          	C_LINE	137,"/usr/local/share/z88dk//include/stdio.h"
   137                          	C_LINE	156,"/usr/local/share/z88dk//include/stdio.h"
   156                          	C_LINE	161,"/usr/local/share/z88dk//include/stdio.h"
   161                          	C_LINE	162,"/usr/local/share/z88dk//include/stdio.h"
   162                          	C_LINE	171,"/usr/local/share/z88dk//include/stdio.h"
   171                          	C_LINE	174,"/usr/local/share/z88dk//include/stdio.h"
   174                          	C_LINE	178,"/usr/local/share/z88dk//include/stdio.h"
   178                          	C_LINE	179,"/usr/local/share/z88dk//include/stdio.h"
   179                          	C_LINE	180,"/usr/local/share/z88dk//include/stdio.h"
   180                          	C_LINE	181,"/usr/local/share/z88dk//include/stdio.h"
   181                          	C_LINE	182,"/usr/local/share/z88dk//include/stdio.h"
   182                          	C_LINE	183,"/usr/local/share/z88dk//include/stdio.h"
   183                          	C_LINE	187,"/usr/local/share/z88dk//include/stdio.h"
   187                          	C_LINE	188,"/usr/local/share/z88dk//include/stdio.h"
   188                          	C_LINE	190,"/usr/local/share/z88dk//include/stdio.h"
   190                          	C_LINE	221,"/usr/local/share/z88dk//include/stdio.h"
   221                          	C_LINE	223,"/usr/local/share/z88dk//include/stdio.h"
   223                          	C_LINE	224,"/usr/local/share/z88dk//include/stdio.h"
   224                          	C_LINE	226,"/usr/local/share/z88dk//include/stdio.h"
   226                          	C_LINE	227,"/usr/local/share/z88dk//include/stdio.h"
   227                          	C_LINE	228,"/usr/local/share/z88dk//include/stdio.h"
   228                          	C_LINE	231,"/usr/local/share/z88dk//include/stdio.h"
   231                          	C_LINE	232,"/usr/local/share/z88dk//include/stdio.h"
   232                          	C_LINE	233,"/usr/local/share/z88dk//include/stdio.h"
   233                          	C_LINE	234,"/usr/local/share/z88dk//include/stdio.h"
   234                          	C_LINE	249,"/usr/local/share/z88dk//include/stdio.h"
   249                          	C_LINE	250,"/usr/local/share/z88dk//include/stdio.h"
   250                          	C_LINE	253,"/usr/local/share/z88dk//include/stdio.h"
   253                          	C_LINE	256,"/usr/local/share/z88dk//include/stdio.h"
   256                          	C_LINE	257,"/usr/local/share/z88dk//include/stdio.h"
   257                          	C_LINE	264,"/usr/local/share/z88dk//include/stdio.h"
   264                          	C_LINE	267,"/usr/local/share/z88dk//include/stdio.h"
   267                          	C_LINE	268,"/usr/local/share/z88dk//include/stdio.h"
   268                          	C_LINE	269,"/usr/local/share/z88dk//include/stdio.h"
   269                          	C_LINE	270,"/usr/local/share/z88dk//include/stdio.h"
   270                          	C_LINE	271,"/usr/local/share/z88dk//include/stdio.h"
   271                          	C_LINE	272,"/usr/local/share/z88dk//include/stdio.h"
   272                          	C_LINE	278,"/usr/local/share/z88dk//include/stdio.h"
   278                          	C_LINE	285,"/usr/local/share/z88dk//include/stdio.h"
   285                          	C_LINE	286,"/usr/local/share/z88dk//include/stdio.h"
   286                          	C_LINE	287,"/usr/local/share/z88dk//include/stdio.h"
   287                          	C_LINE	288,"/usr/local/share/z88dk//include/stdio.h"
   288                          	C_LINE	289,"/usr/local/share/z88dk//include/stdio.h"
   289                          	C_LINE	299,"/usr/local/share/z88dk//include/stdio.h"
   299                          	C_LINE	304,"/usr/local/share/z88dk//include/stdio.h"
   304                          	C_LINE	309,"/usr/local/share/z88dk//include/stdio.h"
   309                          	C_LINE	312,"/usr/local/share/z88dk//include/stdio.h"
   312                          	C_LINE	315,"/usr/local/share/z88dk//include/stdio.h"
   315                          	C_LINE	318,"/usr/local/share/z88dk//include/stdio.h"
   318                          	C_LINE	320,"/usr/local/share/z88dk//include/stdio.h"
   320                          	C_LINE	323,"/usr/local/share/z88dk//include/stdio.h"
   323                          	C_LINE	325,"/usr/local/share/z88dk//include/stdio.h"
   325                          	C_LINE	326,"/usr/local/share/z88dk//include/stdio.h"
   326                          	C_LINE	328,"/usr/local/share/z88dk//include/stdio.h"
   328                          	C_LINE	330,"/usr/local/share/z88dk//include/stdio.h"
   330                          	C_LINE	334,"/usr/local/share/z88dk//include/stdio.h"
   334                          	C_LINE	336,"/usr/local/share/z88dk//include/stdio.h"
   336                          	C_LINE	340,"/usr/local/share/z88dk//include/stdio.h"
   340                          	C_LINE	343,"/usr/local/share/z88dk//include/stdio.h"
   343                          	C_LINE	352,"/usr/local/share/z88dk//include/stdio.h"
   352                          	C_LINE	354,"/usr/local/share/z88dk//include/stdio.h"
   354                          	C_LINE	357,"/usr/local/share/z88dk//include/stdio.h"
   357                          	C_LINE	359,"/usr/local/share/z88dk//include/stdio.h"
   359                          	C_LINE	361,"/usr/local/share/z88dk//include/stdio.h"
   361                          	C_LINE	2,"testesp.c"
testesp.c:
     2                          	C_LINE	0,"/usr/local/share/z88dk//include/conio.h"
/usr/local/share/z88dk//include/conio.h:
                                	C_LINE	0,"/usr/local/share/z88dk//include/stdlib.h"
/usr/local/share/z88dk//include/stdlib.h:
                                	C_LINE	27,"/usr/local/share/z88dk//include/stdlib.h"
    27                          	C_LINE	28,"/usr/local/share/z88dk//include/stdlib.h"
    28                          	C_LINE	30,"/usr/local/share/z88dk//include/stdlib.h"
    30                          	C_LINE	31,"/usr/local/share/z88dk//include/stdlib.h"
    31                          	C_LINE	34,"/usr/local/share/z88dk//include/stdlib.h"
    34                          	C_LINE	35,"/usr/local/share/z88dk//include/stdlib.h"
    35                          	C_LINE	38,"/usr/local/share/z88dk//include/stdlib.h"
    38                          	C_LINE	39,"/usr/local/share/z88dk//include/stdlib.h"
    39                          	C_LINE	43,"/usr/local/share/z88dk//include/stdlib.h"
    43                          	C_LINE	44,"/usr/local/share/z88dk//include/stdlib.h"
    44                          	C_LINE	47,"/usr/local/share/z88dk//include/stdlib.h"
    47                          	C_LINE	48,"/usr/local/share/z88dk//include/stdlib.h"
    48                          	C_LINE	52,"/usr/local/share/z88dk//include/stdlib.h"
    52                          	C_LINE	53,"/usr/local/share/z88dk//include/stdlib.h"
    53                          	C_LINE	92,"/usr/local/share/z88dk//include/stdlib.h"
    92                          	C_LINE	93,"/usr/local/share/z88dk//include/stdlib.h"
    93                          	C_LINE	0,"/usr/local/share/z88dk//include/malloc.h"
/usr/local/share/z88dk//include/malloc.h:
                                	C_LINE	69,"/usr/local/share/z88dk//include/malloc.h"
    69                          	C_LINE	70,"/usr/local/share/z88dk//include/malloc.h"
    70                          	C_LINE	71,"/usr/local/share/z88dk//include/malloc.h"
    71                          	C_LINE	72,"/usr/local/share/z88dk//include/malloc.h"
    72                          	C_LINE	73,"/usr/local/share/z88dk//include/malloc.h"
    73                          	C_LINE	74,"/usr/local/share/z88dk//include/malloc.h"
    74                          	C_LINE	75,"/usr/local/share/z88dk//include/malloc.h"
    75                          	C_LINE	76,"/usr/local/share/z88dk//include/malloc.h"
    76                          	C_LINE	77,"/usr/local/share/z88dk//include/malloc.h"
    77                          	C_LINE	78,"/usr/local/share/z88dk//include/malloc.h"
    78                          	C_LINE	79,"/usr/local/share/z88dk//include/malloc.h"
    79                          	C_LINE	131,"/usr/local/share/z88dk//include/malloc.h"
   131                          	C_LINE	132,"/usr/local/share/z88dk//include/malloc.h"
   132                          	C_LINE	133,"/usr/local/share/z88dk//include/malloc.h"
   133                          	C_LINE	134,"/usr/local/share/z88dk//include/malloc.h"
   134                          	C_LINE	135,"/usr/local/share/z88dk//include/malloc.h"
   135                          	C_LINE	136,"/usr/local/share/z88dk//include/malloc.h"
   136                          	C_LINE	137,"/usr/local/share/z88dk//include/malloc.h"
   137                          	C_LINE	138,"/usr/local/share/z88dk//include/malloc.h"
   138                          	C_LINE	139,"/usr/local/share/z88dk//include/malloc.h"
   139                          	C_LINE	140,"/usr/local/share/z88dk//include/malloc.h"
   140                          	C_LINE	141,"/usr/local/share/z88dk//include/malloc.h"
   141                          	C_LINE	142,"/usr/local/share/z88dk//include/malloc.h"
   142                          	C_LINE	143,"/usr/local/share/z88dk//include/malloc.h"
   143                          	C_LINE	107,"/usr/local/share/z88dk//include/stdlib.h"
/usr/local/share/z88dk//include/stdlib.h:
   107                          	C_LINE	120,"/usr/local/share/z88dk//include/stdlib.h"
   120                          	C_LINE	121,"/usr/local/share/z88dk//include/stdlib.h"
   121                          	C_LINE	126,"/usr/local/share/z88dk//include/stdlib.h"
   126                          	C_LINE	127,"/usr/local/share/z88dk//include/stdlib.h"
   127                          	C_LINE	128,"/usr/local/share/z88dk//include/stdlib.h"
   128                          	C_LINE	129,"/usr/local/share/z88dk//include/stdlib.h"
   129                          	C_LINE	134,"/usr/local/share/z88dk//include/stdlib.h"
   134                          	C_LINE	137,"/usr/local/share/z88dk//include/stdlib.h"
   137                          	C_LINE	138,"/usr/local/share/z88dk//include/stdlib.h"
   138                          	C_LINE	139,"/usr/local/share/z88dk//include/stdlib.h"
   139                          	C_LINE	140,"/usr/local/share/z88dk//include/stdlib.h"
   140                          	C_LINE	141,"/usr/local/share/z88dk//include/stdlib.h"
   141                          	C_LINE	153,"/usr/local/share/z88dk//include/stdlib.h"
   153                          	C_LINE	154,"/usr/local/share/z88dk//include/stdlib.h"
   154                          	C_LINE	155,"/usr/local/share/z88dk//include/stdlib.h"
   155                          	C_LINE	156,"/usr/local/share/z88dk//include/stdlib.h"
   156                          	C_LINE	160,"/usr/local/share/z88dk//include/stdlib.h"
   160                          	C_LINE	161,"/usr/local/share/z88dk//include/stdlib.h"
   161                          	C_LINE	163,"/usr/local/share/z88dk//include/stdlib.h"
   163                          	C_LINE	164,"/usr/local/share/z88dk//include/stdlib.h"
   164                          	C_LINE	189,"/usr/local/share/z88dk//include/stdlib.h"
   189                          	C_LINE	197,"/usr/local/share/z88dk//include/stdlib.h"
   197                          	C_LINE	205,"/usr/local/share/z88dk//include/stdlib.h"
   205                          	C_LINE	213,"/usr/local/share/z88dk//include/stdlib.h"
   213                          	C_LINE	221,"/usr/local/share/z88dk//include/stdlib.h"
   221                          	C_LINE	222,"/usr/local/share/z88dk//include/stdlib.h"
   222                          	C_LINE	226,"/usr/local/share/z88dk//include/stdlib.h"
   226                          	C_LINE	227,"/usr/local/share/z88dk//include/stdlib.h"
   227                          	C_LINE	231,"/usr/local/share/z88dk//include/stdlib.h"
   231                          	C_LINE	232,"/usr/local/share/z88dk//include/stdlib.h"
   232                          	C_LINE	236,"/usr/local/share/z88dk//include/stdlib.h"
   236                          	C_LINE	237,"/usr/local/share/z88dk//include/stdlib.h"
   237                          	C_LINE	246,"/usr/local/share/z88dk//include/stdlib.h"
   246                          	C_LINE	247,"/usr/local/share/z88dk//include/stdlib.h"
   247                          	C_LINE	249,"/usr/local/share/z88dk//include/stdlib.h"
   249                          	C_LINE	264,"/usr/local/share/z88dk//include/stdlib.h"
   264                          	C_LINE	265,"/usr/local/share/z88dk//include/stdlib.h"
   265                          	C_LINE	266,"/usr/local/share/z88dk//include/stdlib.h"
   266                          	C_LINE	279,"/usr/local/share/z88dk//include/stdlib.h"
   279                          	C_LINE	283,"/usr/local/share/z88dk//include/stdlib.h"
   283                          	C_LINE	284,"/usr/local/share/z88dk//include/stdlib.h"
   284                          	C_LINE	285,"/usr/local/share/z88dk//include/stdlib.h"
   285                          	C_LINE	286,"/usr/local/share/z88dk//include/stdlib.h"
   286                          	C_LINE	287,"/usr/local/share/z88dk//include/stdlib.h"
   287                          	C_LINE	288,"/usr/local/share/z88dk//include/stdlib.h"
   288                          	C_LINE	303,"/usr/local/share/z88dk//include/stdlib.h"
   303                          	C_LINE	305,"/usr/local/share/z88dk//include/stdlib.h"
   305                          	C_LINE	306,"/usr/local/share/z88dk//include/stdlib.h"
   306                          	C_LINE	322,"/usr/local/share/z88dk//include/stdlib.h"
   322                          	C_LINE	323,"/usr/local/share/z88dk//include/stdlib.h"
   323                          	C_LINE	328,"/usr/local/share/z88dk//include/stdlib.h"
   328                          	C_LINE	331,"/usr/local/share/z88dk//include/stdlib.h"
   331                          	C_LINE	21,"/usr/local/share/z88dk//include/conio.h"
/usr/local/share/z88dk//include/conio.h:
    21                          	C_LINE	0,"/usr/local/share/z88dk//include/dos.h"
/usr/local/share/z88dk//include/dos.h:
                                	C_LINE	0,"/usr/local/share/z88dk//include/time.h"
/usr/local/share/z88dk//include/time.h:
                                	C_LINE	70,"/usr/local/share/z88dk//include/time.h"
    70                          	C_LINE	73,"/usr/local/share/z88dk//include/time.h"
    73                          	C_LINE	93,"/usr/local/share/z88dk//include/time.h"
    93                          	C_LINE	94,"/usr/local/share/z88dk//include/time.h"
    94                          	C_LINE	95,"/usr/local/share/z88dk//include/time.h"
    95                          	C_LINE	96,"/usr/local/share/z88dk//include/time.h"
    96                          	C_LINE	97,"/usr/local/share/z88dk//include/time.h"
    97                          	C_LINE	101,"/usr/local/share/z88dk//include/time.h"
   101                          	C_LINE	104,"/usr/local/share/z88dk//include/time.h"
   104                          	C_LINE	146,"/usr/local/share/z88dk//include/time.h"
   146                          	C_LINE	155,"/usr/local/share/z88dk//include/time.h"
   155                          	C_LINE	156,"/usr/local/share/z88dk//include/time.h"
   156                          	C_LINE	160,"/usr/local/share/z88dk//include/time.h"
   160                          	C_LINE	161,"/usr/local/share/z88dk//include/time.h"
   161                          	C_LINE	18,"/usr/local/share/z88dk//include/dos.h"
/usr/local/share/z88dk//include/dos.h:
    18                          	C_LINE	0,"/usr/local/share/z88dk//include/sound.h"
/usr/local/share/z88dk//include/sound.h:
                                	C_LINE	23,"/usr/local/share/z88dk//include/sound.h"
    23                          	C_LINE	24,"/usr/local/share/z88dk//include/sound.h"
    24                          	C_LINE	25,"/usr/local/share/z88dk//include/sound.h"
    25                          	C_LINE	26,"/usr/local/share/z88dk//include/sound.h"
    26                          	C_LINE	27,"/usr/local/share/z88dk//include/sound.h"
    27                          	C_LINE	30,"/usr/local/share/z88dk//include/sound.h"
    30                          	C_LINE	31,"/usr/local/share/z88dk//include/sound.h"
    31                          	C_LINE	32,"/usr/local/share/z88dk//include/sound.h"
    32                          	C_LINE	33,"/usr/local/share/z88dk//include/sound.h"
    33                          	C_LINE	34,"/usr/local/share/z88dk//include/sound.h"
    34                          	C_LINE	35,"/usr/local/share/z88dk//include/sound.h"
    35                          	C_LINE	36,"/usr/local/share/z88dk//include/sound.h"
    36                          	C_LINE	39,"/usr/local/share/z88dk//include/sound.h"
    39                          	C_LINE	42,"/usr/local/share/z88dk//include/sound.h"
    42                          	C_LINE	43,"/usr/local/share/z88dk//include/sound.h"
    43                          	C_LINE	47,"/usr/local/share/z88dk//include/sound.h"
    47                          	C_LINE	48,"/usr/local/share/z88dk//include/sound.h"
    48                          	C_LINE	52,"/usr/local/share/z88dk//include/sound.h"
    52                          	C_LINE	53,"/usr/local/share/z88dk//include/sound.h"
    53                          	C_LINE	57,"/usr/local/share/z88dk//include/sound.h"
    57                          	C_LINE	60,"/usr/local/share/z88dk//include/sound.h"
    60                          	C_LINE	63,"/usr/local/share/z88dk//include/sound.h"
    63                          	C_LINE	66,"/usr/local/share/z88dk//include/sound.h"
    66                          	C_LINE	69,"/usr/local/share/z88dk//include/sound.h"
    69                          	C_LINE	70,"/usr/local/share/z88dk//include/sound.h"
    70                          	C_LINE	71,"/usr/local/share/z88dk//include/sound.h"
    71                          	C_LINE	72,"/usr/local/share/z88dk//include/sound.h"
    72                          	C_LINE	75,"/usr/local/share/z88dk//include/sound.h"
    75                          	C_LINE	78,"/usr/local/share/z88dk//include/sound.h"
    78                          	C_LINE	108,"/usr/local/share/z88dk//include/sound.h"
   108                          	C_LINE	263,"/usr/local/share/z88dk//include/sound.h"
   263                          	C_LINE	267,"/usr/local/share/z88dk//include/sound.h"
   267                          	C_LINE	268,"/usr/local/share/z88dk//include/sound.h"
   268                          	C_LINE	269,"/usr/local/share/z88dk//include/sound.h"
   269                          	C_LINE	270,"/usr/local/share/z88dk//include/sound.h"
   270                          	C_LINE	271,"/usr/local/share/z88dk//include/sound.h"
   271                          	C_LINE	272,"/usr/local/share/z88dk//include/sound.h"
   272                          	C_LINE	273,"/usr/local/share/z88dk//include/sound.h"
   273                          	C_LINE	274,"/usr/local/share/z88dk//include/sound.h"
   274                          	C_LINE	275,"/usr/local/share/z88dk//include/sound.h"
   275                          	C_LINE	276,"/usr/local/share/z88dk//include/sound.h"
   276                          	C_LINE	277,"/usr/local/share/z88dk//include/sound.h"
   277                          	C_LINE	278,"/usr/local/share/z88dk//include/sound.h"
   278                          	C_LINE	279,"/usr/local/share/z88dk//include/sound.h"
   279                          	C_LINE	280,"/usr/local/share/z88dk//include/sound.h"
   280                          	C_LINE	281,"/usr/local/share/z88dk//include/sound.h"
   281                          	C_LINE	282,"/usr/local/share/z88dk//include/sound.h"
   282                          	C_LINE	283,"/usr/local/share/z88dk//include/sound.h"
   283                          	C_LINE	284,"/usr/local/share/z88dk//include/sound.h"
   284                          	C_LINE	285,"/usr/local/share/z88dk//include/sound.h"
   285                          	C_LINE	286,"/usr/local/share/z88dk//include/sound.h"
   286                          	C_LINE	287,"/usr/local/share/z88dk//include/sound.h"
   287                          	C_LINE	288,"/usr/local/share/z88dk//include/sound.h"
   288                          	C_LINE	289,"/usr/local/share/z88dk//include/sound.h"
   289                          	C_LINE	290,"/usr/local/share/z88dk//include/sound.h"
   290                          	C_LINE	291,"/usr/local/share/z88dk//include/sound.h"
   291                          	C_LINE	292,"/usr/local/share/z88dk//include/sound.h"
   292                          	C_LINE	293,"/usr/local/share/z88dk//include/sound.h"
   293                          	C_LINE	294,"/usr/local/share/z88dk//include/sound.h"
   294                          	C_LINE	295,"/usr/local/share/z88dk//include/sound.h"
   295                          	C_LINE	296,"/usr/local/share/z88dk//include/sound.h"
   296                          	C_LINE	297,"/usr/local/share/z88dk//include/sound.h"
   297                          	C_LINE	298,"/usr/local/share/z88dk//include/sound.h"
   298                          	C_LINE	299,"/usr/local/share/z88dk//include/sound.h"
   299                          	C_LINE	300,"/usr/local/share/z88dk//include/sound.h"
   300                          	C_LINE	301,"/usr/local/share/z88dk//include/sound.h"
   301                          	C_LINE	302,"/usr/local/share/z88dk//include/sound.h"
   302                          	C_LINE	303,"/usr/local/share/z88dk//include/sound.h"
   303                          	C_LINE	304,"/usr/local/share/z88dk//include/sound.h"
   304                          	C_LINE	305,"/usr/local/share/z88dk//include/sound.h"
   305                          	C_LINE	306,"/usr/local/share/z88dk//include/sound.h"
   306                          	C_LINE	307,"/usr/local/share/z88dk//include/sound.h"
   307                          	C_LINE	308,"/usr/local/share/z88dk//include/sound.h"
   308                          	C_LINE	309,"/usr/local/share/z88dk//include/sound.h"
   309                          	C_LINE	310,"/usr/local/share/z88dk//include/sound.h"
   310                          	C_LINE	311,"/usr/local/share/z88dk//include/sound.h"
   311                          	C_LINE	312,"/usr/local/share/z88dk//include/sound.h"
   312                          	C_LINE	313,"/usr/local/share/z88dk//include/sound.h"
   313                          	C_LINE	314,"/usr/local/share/z88dk//include/sound.h"
   314                          	C_LINE	315,"/usr/local/share/z88dk//include/sound.h"
   315                          	C_LINE	316,"/usr/local/share/z88dk//include/sound.h"
   316                          	C_LINE	317,"/usr/local/share/z88dk//include/sound.h"
   317                          	C_LINE	318,"/usr/local/share/z88dk//include/sound.h"
   318                          	C_LINE	319,"/usr/local/share/z88dk//include/sound.h"
   319                          	C_LINE	320,"/usr/local/share/z88dk//include/sound.h"
   320                          	C_LINE	321,"/usr/local/share/z88dk//include/sound.h"
   321                          	C_LINE	322,"/usr/local/share/z88dk//include/sound.h"
   322                          	C_LINE	323,"/usr/local/share/z88dk//include/sound.h"
   323                          	C_LINE	324,"/usr/local/share/z88dk//include/sound.h"
   324                          	C_LINE	19,"/usr/local/share/z88dk//include/dos.h"
/usr/local/share/z88dk//include/dos.h:
    19                          	C_LINE	21,"/usr/local/share/z88dk//include/dos.h"
    21                          	C_LINE	27,"/usr/local/share/z88dk//include/dos.h"
    27                          	C_LINE	23,"/usr/local/share/z88dk//include/conio.h"
/usr/local/share/z88dk//include/conio.h:
    23                          	C_LINE	0,"/usr/local/share/z88dk//include/X11/Xz88dk.h"
/usr/local/share/z88dk//include/X11/Xz88dk.h:
                                	C_LINE	0,"/usr/local/share/z88dk//include/X11/Xlib.h"
/usr/local/share/z88dk//include/X11/Xlib.h:
                                	C_LINE	0,"/usr/local/share/z88dk//include/games.h"
/usr/local/share/z88dk//include/games.h:
                                	C_LINE	22,"/usr/local/share/z88dk//include/games.h"
    22                          	C_LINE	23,"/usr/local/share/z88dk//include/games.h"
    23                          	C_LINE	26,"/usr/local/share/z88dk//include/games.h"
    26                          	C_LINE	29,"/usr/local/share/z88dk//include/games.h"
    29                          	C_LINE	30,"/usr/local/share/z88dk//include/games.h"
    30                          	C_LINE	45,"/usr/local/share/z88dk//include/games.h"
    45                          	C_LINE	50,"/usr/local/share/z88dk//include/games.h"
    50                          	C_LINE	52,"/usr/local/share/z88dk//include/games.h"
    52                          	C_LINE	65,"/usr/local/share/z88dk//include/games.h"
    65                          	C_LINE	57,"/usr/local/share/z88dk//include/X11/Xlib.h"
/usr/local/share/z88dk//include/X11/Xlib.h:
    57                          	C_LINE	0,"/usr/local/share/z88dk//include/string.h"
/usr/local/share/z88dk//include/string.h:
                                	C_LINE	7,"/usr/local/share/z88dk//include/string.h"
     7                          	C_LINE	8,"/usr/local/share/z88dk//include/string.h"
     8                          	C_LINE	12,"/usr/local/share/z88dk//include/string.h"
    12                          	C_LINE	14,"/usr/local/share/z88dk//include/string.h"
    14                          	C_LINE	19,"/usr/local/share/z88dk//include/string.h"
    19                          	C_LINE	20,"/usr/local/share/z88dk//include/string.h"
    20                          	C_LINE	24,"/usr/local/share/z88dk//include/string.h"
    24                          	C_LINE	25,"/usr/local/share/z88dk//include/string.h"
    25                          	C_LINE	29,"/usr/local/share/z88dk//include/string.h"
    29                          	C_LINE	30,"/usr/local/share/z88dk//include/string.h"
    30                          	C_LINE	34,"/usr/local/share/z88dk//include/string.h"
    34                          	C_LINE	35,"/usr/local/share/z88dk//include/string.h"
    35                          	C_LINE	39,"/usr/local/share/z88dk//include/string.h"
    39                          	C_LINE	41,"/usr/local/share/z88dk//include/string.h"
    41                          	C_LINE	46,"/usr/local/share/z88dk//include/string.h"
    46                          	C_LINE	47,"/usr/local/share/z88dk//include/string.h"
    47                          	C_LINE	52,"/usr/local/share/z88dk//include/string.h"
    52                          	C_LINE	53,"/usr/local/share/z88dk//include/string.h"
    53                          	C_LINE	57,"/usr/local/share/z88dk//include/string.h"
    57                          	C_LINE	59,"/usr/local/share/z88dk//include/string.h"
    59                          	C_LINE	64,"/usr/local/share/z88dk//include/string.h"
    64                          	C_LINE	65,"/usr/local/share/z88dk//include/string.h"
    65                          	C_LINE	69,"/usr/local/share/z88dk//include/string.h"
    69                          	C_LINE	72,"/usr/local/share/z88dk//include/string.h"
    72                          	C_LINE	75,"/usr/local/share/z88dk//include/string.h"
    75                          	C_LINE	78,"/usr/local/share/z88dk//include/string.h"
    78                          	C_LINE	79,"/usr/local/share/z88dk//include/string.h"
    79                          	C_LINE	83,"/usr/local/share/z88dk//include/string.h"
    83                          	C_LINE	85,"/usr/local/share/z88dk//include/string.h"
    85                          	C_LINE	90,"/usr/local/share/z88dk//include/string.h"
    90                          	C_LINE	92,"/usr/local/share/z88dk//include/string.h"
    92                          	C_LINE	97,"/usr/local/share/z88dk//include/string.h"
    97                          	C_LINE	99,"/usr/local/share/z88dk//include/string.h"
    99                          	C_LINE	104,"/usr/local/share/z88dk//include/string.h"
   104                          	C_LINE	105,"/usr/local/share/z88dk//include/string.h"
   105                          	C_LINE	109,"/usr/local/share/z88dk//include/string.h"
   109                          	C_LINE	111,"/usr/local/share/z88dk//include/string.h"
   111                          	C_LINE	116,"/usr/local/share/z88dk//include/string.h"
   116                          	C_LINE	118,"/usr/local/share/z88dk//include/string.h"
   118                          	C_LINE	123,"/usr/local/share/z88dk//include/string.h"
   123                          	C_LINE	125,"/usr/local/share/z88dk//include/string.h"
   125                          	C_LINE	133,"/usr/local/share/z88dk//include/string.h"
   133                          	C_LINE	135,"/usr/local/share/z88dk//include/string.h"
   135                          	C_LINE	139,"/usr/local/share/z88dk//include/string.h"
   139                          	C_LINE	141,"/usr/local/share/z88dk//include/string.h"
   141                          	C_LINE	145,"/usr/local/share/z88dk//include/string.h"
   145                          	C_LINE	146,"/usr/local/share/z88dk//include/string.h"
   146                          	C_LINE	150,"/usr/local/share/z88dk//include/string.h"
   150                          	C_LINE	152,"/usr/local/share/z88dk//include/string.h"
   152                          	C_LINE	157,"/usr/local/share/z88dk//include/string.h"
   157                          	C_LINE	158,"/usr/local/share/z88dk//include/string.h"
   158                          	C_LINE	162,"/usr/local/share/z88dk//include/string.h"
   162                          	C_LINE	163,"/usr/local/share/z88dk//include/string.h"
   163                          	C_LINE	167,"/usr/local/share/z88dk//include/string.h"
   167                          	C_LINE	168,"/usr/local/share/z88dk//include/string.h"
   168                          	C_LINE	172,"/usr/local/share/z88dk//include/string.h"
   172                          	C_LINE	173,"/usr/local/share/z88dk//include/string.h"
   173                          	C_LINE	177,"/usr/local/share/z88dk//include/string.h"
   177                          	C_LINE	178,"/usr/local/share/z88dk//include/string.h"
   178                          	C_LINE	182,"/usr/local/share/z88dk//include/string.h"
   182                          	C_LINE	183,"/usr/local/share/z88dk//include/string.h"
   183                          	C_LINE	187,"/usr/local/share/z88dk//include/string.h"
   187                          	C_LINE	188,"/usr/local/share/z88dk//include/string.h"
   188                          	C_LINE	192,"/usr/local/share/z88dk//include/string.h"
   192                          	C_LINE	193,"/usr/local/share/z88dk//include/string.h"
   193                          	C_LINE	197,"/usr/local/share/z88dk//include/string.h"
   197                          	C_LINE	200,"/usr/local/share/z88dk//include/string.h"
   200                          	C_LINE	203,"/usr/local/share/z88dk//include/string.h"
   203                          	C_LINE	204,"/usr/local/share/z88dk//include/string.h"
   204                          	C_LINE	208,"/usr/local/share/z88dk//include/string.h"
   208                          	C_LINE	210,"/usr/local/share/z88dk//include/string.h"
   210                          	C_LINE	215,"/usr/local/share/z88dk//include/string.h"
   215                          	C_LINE	217,"/usr/local/share/z88dk//include/string.h"
   217                          	C_LINE	222,"/usr/local/share/z88dk//include/string.h"
   222                          	C_LINE	225,"/usr/local/share/z88dk//include/string.h"
   225                          	C_LINE	228,"/usr/local/share/z88dk//include/string.h"
   228                          	C_LINE	230,"/usr/local/share/z88dk//include/string.h"
   230                          	C_LINE	235,"/usr/local/share/z88dk//include/string.h"
   235                          	C_LINE	237,"/usr/local/share/z88dk//include/string.h"
   237                          	C_LINE	242,"/usr/local/share/z88dk//include/string.h"
   242                          	C_LINE	244,"/usr/local/share/z88dk//include/string.h"
   244                          	C_LINE	249,"/usr/local/share/z88dk//include/string.h"
   249                          	C_LINE	251,"/usr/local/share/z88dk//include/string.h"
   251                          	C_LINE	256,"/usr/local/share/z88dk//include/string.h"
   256                          	C_LINE	258,"/usr/local/share/z88dk//include/string.h"
   258                          	C_LINE	263,"/usr/local/share/z88dk//include/string.h"
   263                          	C_LINE	264,"/usr/local/share/z88dk//include/string.h"
   264                          	C_LINE	268,"/usr/local/share/z88dk//include/string.h"
   268                          	C_LINE	269,"/usr/local/share/z88dk//include/string.h"
   269                          	C_LINE	273,"/usr/local/share/z88dk//include/string.h"
   273                          	C_LINE	274,"/usr/local/share/z88dk//include/string.h"
   274                          	C_LINE	278,"/usr/local/share/z88dk//include/string.h"
   278                          	C_LINE	279,"/usr/local/share/z88dk//include/string.h"
   279                          	C_LINE	283,"/usr/local/share/z88dk//include/string.h"
   283                          	C_LINE	284,"/usr/local/share/z88dk//include/string.h"
   284                          	C_LINE	288,"/usr/local/share/z88dk//include/string.h"
   288                          	C_LINE	289,"/usr/local/share/z88dk//include/string.h"
   289                          	C_LINE	293,"/usr/local/share/z88dk//include/string.h"
   293                          	C_LINE	296,"/usr/local/share/z88dk//include/string.h"
   296                          	C_LINE	297,"/usr/local/share/z88dk//include/string.h"
   297                          	C_LINE	301,"/usr/local/share/z88dk//include/string.h"
   301                          	C_LINE	304,"/usr/local/share/z88dk//include/string.h"
   304                          	C_LINE	305,"/usr/local/share/z88dk//include/string.h"
   305                          	C_LINE	309,"/usr/local/share/z88dk//include/string.h"
   309                          	C_LINE	310,"/usr/local/share/z88dk//include/string.h"
   310                          	C_LINE	314,"/usr/local/share/z88dk//include/string.h"
   314                          	C_LINE	315,"/usr/local/share/z88dk//include/string.h"
   315                          	C_LINE	319,"/usr/local/share/z88dk//include/string.h"
   319                          	C_LINE	322,"/usr/local/share/z88dk//include/string.h"
   322                          	C_LINE	323,"/usr/local/share/z88dk//include/string.h"
   323                          	C_LINE	327,"/usr/local/share/z88dk//include/string.h"
   327                          	C_LINE	329,"/usr/local/share/z88dk//include/string.h"
   329                          	C_LINE	334,"/usr/local/share/z88dk//include/string.h"
   334                          	C_LINE	337,"/usr/local/share/z88dk//include/string.h"
   337                          	C_LINE	339,"/usr/local/share/z88dk//include/string.h"
   339                          	C_LINE	343,"/usr/local/share/z88dk//include/string.h"
   343                          	C_LINE	344,"/usr/local/share/z88dk//include/string.h"
   344                          	C_LINE	348,"/usr/local/share/z88dk//include/string.h"
   348                          	C_LINE	349,"/usr/local/share/z88dk//include/string.h"
   349                          	C_LINE	352,"/usr/local/share/z88dk//include/string.h"
   352                          	C_LINE	353,"/usr/local/share/z88dk//include/string.h"
   353                          	C_LINE	410,"/usr/local/share/z88dk//include/string.h"
   410                          	C_LINE	416,"/usr/local/share/z88dk//include/string.h"
   416                          	C_LINE	422,"/usr/local/share/z88dk//include/string.h"
   422                          	C_LINE	428,"/usr/local/share/z88dk//include/string.h"
   428                          	C_LINE	61,"/usr/local/share/z88dk//include/X11/Xlib.h"
/usr/local/share/z88dk//include/X11/Xlib.h:
    61                          	C_LINE	0,"/usr/local/share/z88dk//include/X11/X.h"
/usr/local/share/z88dk//include/X11/X.h:
                                	C_LINE	63,"/usr/local/share/z88dk//include/X11/X.h"
    63                          	C_LINE	66,"/usr/local/share/z88dk//include/X11/X.h"
    66                          	C_LINE	69,"/usr/local/share/z88dk//include/X11/X.h"
    69                          	C_LINE	71,"/usr/local/share/z88dk//include/X11/X.h"
    71                          	C_LINE	72,"/usr/local/share/z88dk//include/X11/X.h"
    72                          	C_LINE	73,"/usr/local/share/z88dk//include/X11/X.h"
    73                          	C_LINE	74,"/usr/local/share/z88dk//include/X11/X.h"
    74                          	C_LINE	75,"/usr/local/share/z88dk//include/X11/X.h"
    75                          	C_LINE	76,"/usr/local/share/z88dk//include/X11/X.h"
    76                          	C_LINE	77,"/usr/local/share/z88dk//include/X11/X.h"
    77                          	C_LINE	78,"/usr/local/share/z88dk//include/X11/X.h"
    78                          	C_LINE	80,"/usr/local/share/z88dk//include/X11/X.h"
    80                          	C_LINE	77,"/usr/local/share/z88dk//include/X11/Xlib.h"
/usr/local/share/z88dk//include/X11/Xlib.h:
    77                          	C_LINE	82,"/usr/local/share/z88dk//include/X11/Xlib.h"
    82                          	C_LINE	112,"/usr/local/share/z88dk//include/X11/Xlib.h"
   112                          	C_LINE	119,"/usr/local/share/z88dk//include/X11/Xlib.h"
   119                          	C_LINE	149,"/usr/local/share/z88dk//include/X11/Xlib.h"
   149                          	C_LINE	159,"/usr/local/share/z88dk//include/X11/Xlib.h"
   159                          	C_LINE	167,"/usr/local/share/z88dk//include/X11/Xlib.h"
   167                          	C_LINE	177,"/usr/local/share/z88dk//include/X11/Xlib.h"
   177                          	C_LINE	205,"/usr/local/share/z88dk//include/X11/Xlib.h"
   205                          	C_LINE	210,"/usr/local/share/z88dk//include/X11/Xlib.h"
   210                          	C_LINE	225,"/usr/local/share/z88dk//include/X11/Xlib.h"
   225                          	C_LINE	226,"/usr/local/share/z88dk//include/X11/Xlib.h"
   226                          	C_LINE	228,"/usr/local/share/z88dk//include/X11/Xlib.h"
   228                          	C_LINE	243,"/usr/local/share/z88dk//include/X11/Xlib.h"
   243                          	C_LINE	244,"/usr/local/share/z88dk//include/X11/Xlib.h"
   244                          	C_LINE	246,"/usr/local/share/z88dk//include/X11/Xlib.h"
   246                          	C_LINE	261,"/usr/local/share/z88dk//include/X11/Xlib.h"
   261                          	C_LINE	263,"/usr/local/share/z88dk//include/X11/Xlib.h"
   263                          	C_LINE	284,"/usr/local/share/z88dk//include/X11/Xlib.h"
   284                          	C_LINE	285,"/usr/local/share/z88dk//include/X11/Xlib.h"
   285                          	C_LINE	287,"/usr/local/share/z88dk//include/X11/Xlib.h"
   287                          	C_LINE	301,"/usr/local/share/z88dk//include/X11/Xlib.h"
   301                          	C_LINE	302,"/usr/local/share/z88dk//include/X11/Xlib.h"
   302                          	C_LINE	305,"/usr/local/share/z88dk//include/X11/Xlib.h"
   305                          	C_LINE	314,"/usr/local/share/z88dk//include/X11/Xlib.h"
   314                          	C_LINE	325,"/usr/local/share/z88dk//include/X11/Xlib.h"
   325                          	C_LINE	338,"/usr/local/share/z88dk//include/X11/Xlib.h"
   338                          	C_LINE	348,"/usr/local/share/z88dk//include/X11/Xlib.h"
   348                          	C_LINE	357,"/usr/local/share/z88dk//include/X11/Xlib.h"
   357                          	C_LINE	370,"/usr/local/share/z88dk//include/X11/Xlib.h"
   370                          	C_LINE	379,"/usr/local/share/z88dk//include/X11/Xlib.h"
   379                          	C_LINE	389,"/usr/local/share/z88dk//include/X11/Xlib.h"
   389                          	C_LINE	399,"/usr/local/share/z88dk//include/X11/Xlib.h"
   399                          	C_LINE	408,"/usr/local/share/z88dk//include/X11/Xlib.h"
   408                          	C_LINE	420,"/usr/local/share/z88dk//include/X11/Xlib.h"
   420                          	C_LINE	434,"/usr/local/share/z88dk//include/X11/Xlib.h"
   434                          	C_LINE	444,"/usr/local/share/z88dk//include/X11/Xlib.h"
   444                          	C_LINE	453,"/usr/local/share/z88dk//include/X11/Xlib.h"
   453                          	C_LINE	468,"/usr/local/share/z88dk//include/X11/Xlib.h"
   468                          	C_LINE	478,"/usr/local/share/z88dk//include/X11/Xlib.h"
   478                          	C_LINE	488,"/usr/local/share/z88dk//include/X11/Xlib.h"
   488                          	C_LINE	499,"/usr/local/share/z88dk//include/X11/Xlib.h"
   499                          	C_LINE	509,"/usr/local/share/z88dk//include/X11/Xlib.h"
   509                          	C_LINE	522,"/usr/local/share/z88dk//include/X11/Xlib.h"
   522                          	C_LINE	534,"/usr/local/share/z88dk//include/X11/Xlib.h"
   534                          	C_LINE	546,"/usr/local/share/z88dk//include/X11/Xlib.h"
   546                          	C_LINE	561,"/usr/local/share/z88dk//include/X11/Xlib.h"
   561                          	C_LINE	573,"/usr/local/share/z88dk//include/X11/Xlib.h"
   573                          	C_LINE	583,"/usr/local/share/z88dk//include/X11/Xlib.h"
   583                          	C_LINE	595,"/usr/local/share/z88dk//include/X11/Xlib.h"
   595                          	C_LINE	632,"/usr/local/share/z88dk//include/X11/Xlib.h"
   632                          	C_LINE	657,"/usr/local/share/z88dk//include/X11/Xlib.h"
   657                          	C_LINE	0,"/usr/local/share/z88dk//include/X11/Xz88dk.h"
/usr/local/share/z88dk//include/X11/Xz88dk.h:
                                	C_LINE	691,"/usr/local/share/z88dk//include/X11/Xlib.h"
/usr/local/share/z88dk//include/X11/Xlib.h:
   691                          	C_LINE	7,"/usr/local/share/z88dk//include/X11/Xz88dk.h"
/usr/local/share/z88dk//include/X11/Xz88dk.h:
     7                          	C_LINE	15,"/usr/local/share/z88dk//include/X11/Xz88dk.h"
    15                          	C_LINE	16,"/usr/local/share/z88dk//include/X11/Xz88dk.h"
    16                          	C_LINE	17,"/usr/local/share/z88dk//include/X11/Xz88dk.h"
    17                          	C_LINE	18,"/usr/local/share/z88dk//include/X11/Xz88dk.h"
    18                          	C_LINE	19,"/usr/local/share/z88dk//include/X11/Xz88dk.h"
    19                          	C_LINE	20,"/usr/local/share/z88dk//include/X11/Xz88dk.h"
    20                          	C_LINE	22,"/usr/local/share/z88dk//include/X11/Xz88dk.h"
    22                          	C_LINE	27,"/usr/local/share/z88dk//include/X11/Xz88dk.h"
    27                          	C_LINE	28,"/usr/local/share/z88dk//include/X11/Xz88dk.h"
    28                          	C_LINE	30,"/usr/local/share/z88dk//include/X11/Xz88dk.h"
    30                          	C_LINE	32,"/usr/local/share/z88dk//include/X11/Xz88dk.h"
    32                          	C_LINE	34,"/usr/local/share/z88dk//include/X11/Xz88dk.h"
    34                          	C_LINE	35,"/usr/local/share/z88dk//include/X11/Xz88dk.h"
    35                          	C_LINE	37,"/usr/local/share/z88dk//include/X11/Xz88dk.h"
    37                          	C_LINE	38,"/usr/local/share/z88dk//include/X11/Xz88dk.h"
    38                          	C_LINE	41,"/usr/local/share/z88dk//include/X11/Xz88dk.h"
    41                          	C_LINE	42,"/usr/local/share/z88dk//include/X11/Xz88dk.h"
    42                          	C_LINE	43,"/usr/local/share/z88dk//include/X11/Xz88dk.h"
    43                          	C_LINE	44,"/usr/local/share/z88dk//include/X11/Xz88dk.h"
    44                          	C_LINE	45,"/usr/local/share/z88dk//include/X11/Xz88dk.h"
    45                          	C_LINE	46,"/usr/local/share/z88dk//include/X11/Xz88dk.h"
    46                          	C_LINE	48,"/usr/local/share/z88dk//include/X11/Xz88dk.h"
    48                          	C_LINE	50,"/usr/local/share/z88dk//include/X11/Xz88dk.h"
    50                          	C_LINE	51,"/usr/local/share/z88dk//include/X11/Xz88dk.h"
    51                          	C_LINE	52,"/usr/local/share/z88dk//include/X11/Xz88dk.h"
    52                          	C_LINE	53,"/usr/local/share/z88dk//include/X11/Xz88dk.h"
    53                          	C_LINE	58,"/usr/local/share/z88dk//include/X11/Xz88dk.h"
    58                          	C_LINE	59,"/usr/local/share/z88dk//include/X11/Xz88dk.h"
    59                          	C_LINE	60,"/usr/local/share/z88dk//include/X11/Xz88dk.h"
    60                          	C_LINE	61,"/usr/local/share/z88dk//include/X11/Xz88dk.h"
    61                          	C_LINE	62,"/usr/local/share/z88dk//include/X11/Xz88dk.h"
    62                          	C_LINE	67,"/usr/local/share/z88dk//include/X11/Xz88dk.h"
    67                          	C_LINE	68,"/usr/local/share/z88dk//include/X11/Xz88dk.h"
    68                          	C_LINE	69,"/usr/local/share/z88dk//include/X11/Xz88dk.h"
    69                          	C_LINE	71,"/usr/local/share/z88dk//include/X11/Xz88dk.h"
    71                          	C_LINE	72,"/usr/local/share/z88dk//include/X11/Xz88dk.h"
    72                          	C_LINE	77,"/usr/local/share/z88dk//include/X11/Xz88dk.h"
    77                          	C_LINE	84,"/usr/local/share/z88dk//include/X11/Xz88dk.h"
    84                          	C_LINE	85,"/usr/local/share/z88dk//include/X11/Xz88dk.h"
    85                          	C_LINE	86,"/usr/local/share/z88dk//include/X11/Xz88dk.h"
    86                          	C_LINE	87,"/usr/local/share/z88dk//include/X11/Xz88dk.h"
    87                          	C_LINE	92,"/usr/local/share/z88dk//include/X11/Xz88dk.h"
    92                          	C_LINE	93,"/usr/local/share/z88dk//include/X11/Xz88dk.h"
    93                          	C_LINE	99,"/usr/local/share/z88dk//include/X11/Xz88dk.h"
    99                          	C_LINE	24,"/usr/local/share/z88dk//include/conio.h"
/usr/local/share/z88dk//include/conio.h:
    24                          	C_LINE	28,"/usr/local/share/z88dk//include/conio.h"
    28                          	C_LINE	62,"/usr/local/share/z88dk//include/conio.h"
    62                          	C_LINE	63,"/usr/local/share/z88dk//include/conio.h"
    63                          	C_LINE	69,"/usr/local/share/z88dk//include/conio.h"
    69                          	C_LINE	70,"/usr/local/share/z88dk//include/conio.h"
    70                          	C_LINE	71,"/usr/local/share/z88dk//include/conio.h"
    71                          	C_LINE	72,"/usr/local/share/z88dk//include/conio.h"
    72                          	C_LINE	74,"/usr/local/share/z88dk//include/conio.h"
    74                          	C_LINE	75,"/usr/local/share/z88dk//include/conio.h"
    75                          	C_LINE	84,"/usr/local/share/z88dk//include/conio.h"
    84                          	C_LINE	86,"/usr/local/share/z88dk//include/conio.h"
    86                          	C_LINE	88,"/usr/local/share/z88dk//include/conio.h"
    88                          	C_LINE	107,"/usr/local/share/z88dk//include/conio.h"
   107                          	C_LINE	108,"/usr/local/share/z88dk//include/conio.h"
   108                          	C_LINE	111,"/usr/local/share/z88dk//include/conio.h"
   111                          	C_LINE	116,"/usr/local/share/z88dk//include/conio.h"
   116                          	C_LINE	119,"/usr/local/share/z88dk//include/conio.h"
   119                          	C_LINE	3,"testesp.c"
testesp.c:
     3                          	C_LINE	0,"/usr/local/share/z88dk//include/ctype.h"
/usr/local/share/z88dk//include/ctype.h:
                                	C_LINE	7,"/usr/local/share/z88dk//include/ctype.h"
     7                          	C_LINE	8,"/usr/local/share/z88dk//include/ctype.h"
     8                          	C_LINE	9,"/usr/local/share/z88dk//include/ctype.h"
     9                          	C_LINE	10,"/usr/local/share/z88dk//include/ctype.h"
    10                          	C_LINE	11,"/usr/local/share/z88dk//include/ctype.h"
    11                          	C_LINE	12,"/usr/local/share/z88dk//include/ctype.h"
    12                          	C_LINE	13,"/usr/local/share/z88dk//include/ctype.h"
    13                          	C_LINE	14,"/usr/local/share/z88dk//include/ctype.h"
    14                          	C_LINE	15,"/usr/local/share/z88dk//include/ctype.h"
    15                          	C_LINE	16,"/usr/local/share/z88dk//include/ctype.h"
    16                          	C_LINE	17,"/usr/local/share/z88dk//include/ctype.h"
    17                          	C_LINE	18,"/usr/local/share/z88dk//include/ctype.h"
    18                          	C_LINE	19,"/usr/local/share/z88dk//include/ctype.h"
    19                          	C_LINE	20,"/usr/local/share/z88dk//include/ctype.h"
    20                          	C_LINE	21,"/usr/local/share/z88dk//include/ctype.h"
    21                          	C_LINE	22,"/usr/local/share/z88dk//include/ctype.h"
    22                          	C_LINE	23,"/usr/local/share/z88dk//include/ctype.h"
    23                          	C_LINE	24,"/usr/local/share/z88dk//include/ctype.h"
    24                          	C_LINE	5,"testesp.c"
testesp.c:
     5                          	C_LINE	0,"testesp.h"
testesp.h:
                                	C_LINE	2,"testesp.h"
     2                          	C_LINE	16,"testesp.h"
    16                          	C_LINE	26,"testesp.h"
    26                          	C_LINE	36,"testesp.h"
    36                          	C_LINE	46,"testesp.h"
    46                          	C_LINE	52,"testesp.h"
    52                          	C_LINE	60,"testesp.h"
    60                          	C_LINE	68,"testesp.h"
    68                          	C_LINE	75,"testesp.h"
    75                          	C_LINE	86,"testesp.h"
    86                          	C_LINE	94,"testesp.h"
    94                          	C_LINE	104,"testesp.h"
   104                          	SECTION	data_compiler
   104                          ._BITMAP_TEST
   104   000000 00              	defb	0
   104   000001 00              	defb	0
   104   000002 00              	defb	0
   104   000003 00              	defb	0
   104   000004 00              	defb	0
   104   000005 00              	defb	0
   104   000006 00              	defb	0
   104   000007 00              	defb	0
   104   000008 00              	defb	0
   104   000009 00              	defb	0
   104   00000a 00              	defb	0
   104   00000b 00              	defb	0
   104   00000c 00              	defb	0
   104   00000d 00              	defb	0
   104   00000e 00              	defb	0
   104   00000f 00              	defb	0
   104   000010 00              	defb	0
   104   000011 00              	defb	0
   104   000012 00              	defb	0
   104   000013 00              	defb	0
   104   000014 00              	defb	0
   104   000015 00              	defb	0
   104   000016 00              	defb	0
   104   000017 00              	defb	255
   104   000018 00              	defb	0
   104   000019 00              	defb	0
   104   00001a 00              	defb	0
   104   00001b 00              	defb	255
   104   00001c 00              	defb	0
   104   00001d 00              	defb	0
   104   00001e 00              	defb	0
   104   00001f 00              	defb	255
   104   000020 00              	defb	0
   104   000021 00              	defb	0
   104   000022 00              	defb	0
   104   000023 00              	defb	255
   104   000024 00              	defb	0
   104   000025 00              	defb	0
   104   000026 00              	defb	0
   104   000027 00              	defb	0
   104   000028 00              	defb	0
   104   000029 00              	defb	0
   104   00002a 00              	defb	0
   104   00002b 00              	defb	0
   104   00002c 00              	defb	0
   104   00002d 00              	defb	0
   104   00002e 00              	defb	0
   104   00002f 00              	defb	0
   104   000030 00              	defb	0
   104   000031 00              	defb	0
   104   000032 00              	defb	0
   104   000033 00              	defb	0
   104   000034 00              	defb	0
   104   000035 00              	defb	0
   104   000036 00              	defb	0
   104   000037 00              	defb	0
   104   000038 00              	defb	0
   104   000039 00              	defb	0
   104   00003a 00              	defb	0
   104   00003b 00              	defb	0
   104   00003c 00              	defb	0
   104   00003d 00              	defb	0
   104   00003e 00              	defb	0
   104   00003f 00              	defb	0
   104   000040 00              	defb	0
   104   000041 00              	defb	0
   104   000042 00              	defb	0
   104   000043 00              	defb	0
   104   000044 00              	defb	0
   104   000045 00              	defb	0
   104   000046 00              	defb	0
   104   000047 00              	defb	0
   104   000048 00              	defb	0
   104   000049 00              	defb	0
   104   00004a 00              	defb	0
   104   00004b 00              	defb	0
   104   00004c 00              	defb	0
   104   00004d 00              	defb	0
   104   00004e 00              	defb	0
   104   00004f 00              	defb	0
   104   000050 00              	defb	0
   104   000051 00              	defb	0
   104   000052 00              	defb	0
   104   000053 00              	defb	255
   104   000054 00              	defb	183
   104   000055 00              	defb	181
   104   000056 00              	defb	204
   104   000057 00              	defb	255
   104   000058 00              	defb	0
   104   000059 00              	defb	0
   104   00005a 00              	defb	0
   104   00005b 00              	defb	255
   104   00005c 00              	defb	128
   104   00005d 00              	defb	94
   104   00005e 00              	defb	77
   104   00005f 00              	defb	255
   104   000060 00              	defb	0
   104   000061 00              	defb	0
   104   000062 00              	defb	0
   104   000063 00              	defb	255
   104   000064 00              	defb	0
   104   000065 00              	defb	0
   104   000066 00              	defb	0
   104   000067 00              	defb	0
   104   000068 00              	defb	0
   104   000069 00              	defb	0
   104   00006a 00              	defb	0
   104   00006b 00              	defb	0
   104   00006c 00              	defb	0
   104   00006d 00              	defb	0
   104   00006e 00              	defb	0
   104   00006f 00              	defb	0
   104   000070 00              	defb	0
   104   000071 00              	defb	0
   104   000072 00              	defb	0
   104   000073 00              	defb	0
   104   000074 00              	defb	0
   104   000075 00              	defb	0
   104   000076 00              	defb	0
   104   000077 00              	defb	0
   104   000078 00              	defb	0
   104   000079 00              	defb	0
   104   00007a 00              	defb	0
   104   00007b 00              	defb	0
   104   00007c 00              	defb	0
   104   00007d 00              	defb	0
   104   00007e 00              	defb	0
   104   00007f 00              	defb	0
   104   000080 00              	defb	0
   104   000081 00              	defb	0
   104   000082 00              	defb	0
   104   000083 00              	defb	0
   104   000084 00              	defb	0
   104   000085 00              	defb	0
   104   000086 00              	defb	0
   104   000087 00              	defb	0
   104   000088 00              	defb	0
   104   000089 00              	defb	0
   104   00008a 00              	defb	0
   104   00008b 00              	defb	0
   104   00008c 00              	defb	0
   104   00008d 00              	defb	0
   104   00008e 00              	defb	0
   104   00008f 00              	defb	0
   104   000090 00              	defb	0
   104   000091 00              	defb	0
   104   000092 00              	defb	0
   104   000093 00              	defb	255
   104   000094 00              	defb	183
   104   000095 00              	defb	181
   104   000096 00              	defb	204
   104   000097 00              	defb	255
   104   000098 00              	defb	156
   104   000099 00              	defb	154
   104   00009a 00              	defb	186
   104   00009b 00              	defb	255
   104   00009c 00              	defb	0
   104   00009d 00              	defb	0
   104   00009e 00              	defb	0
   104   00009f 00              	defb	255
   104   0000a0 00              	defb	0
   104   0000a1 00              	defb	0
   104   0000a2 00              	defb	0
   104   0000a3 00              	defb	255
   104   0000a4 00              	defb	0
   104   0000a5 00              	defb	0
   104   0000a6 00              	defb	0
   104   0000a7 00              	defb	0
   104   0000a8 00              	defb	0
   104   0000a9 00              	defb	0
   104   0000aa 00              	defb	0
   104   0000ab 00              	defb	0
   104   0000ac 00              	defb	0
   104   0000ad 00              	defb	0
   104   0000ae 00              	defb	0
   104   0000af 00              	defb	0
   104   0000b0 00              	defb	0
   104   0000b1 00              	defb	0
   104   0000b2 00              	defb	0
   104   0000b3 00              	defb	0
   104   0000b4 00              	defb	0
   104   0000b5 00              	defb	0
   104   0000b6 00              	defb	0
   104   0000b7 00              	defb	0
   104   0000b8 00              	defb	0
   104   0000b9 00              	defb	0
   104   0000ba 00              	defb	0
   104   0000bb 00              	defb	0
   104   0000bc 00              	defb	0
   104   0000bd 00              	defb	0
   104   0000be 00              	defb	0
   104   0000bf 00              	defb	0
   104   0000c0 00              	defb	0
   104   0000c1 00              	defb	0
   104   0000c2 00              	defb	0
   104   0000c3 00              	defb	0
   104   0000c4 00              	defb	0
   104   0000c5 00              	defb	0
   104   0000c6 00              	defb	0
   104   0000c7 00              	defb	0
   104   0000c8 00              	defb	0
   104   0000c9 00              	defb	0
   104   0000ca 00              	defb	0
   104   0000cb 00              	defb	0
   104   0000cc 00              	defb	0
   104   0000cd 00              	defb	0
   104   0000ce 00              	defb	0
   104   0000cf 00              	defb	0
   104   0000d0 00              	defb	0
   104   0000d1 00              	defb	0
   104   0000d2 00              	defb	0
   104   0000d3 00              	defb	0
   104   0000d4 00              	defb	0
   104   0000d5 00              	defb	0
   104   0000d6 00              	defb	0
   104   0000d7 00              	defb	255
   104   0000d8 00              	defb	156
   104   0000d9 00              	defb	154
   104   0000da 00              	defb	186
   104   0000db 00              	defb	255
   104   0000dc 00              	defb	156
   104   0000dd 00              	defb	154
   104   0000de 00              	defb	186
   104   0000df 00              	defb	255
   104   0000e0 00              	defb	183
   104   0000e1 00              	defb	181
   104   0000e2 00              	defb	204
   104   0000e3 00              	defb	255
   104   0000e4 00              	defb	0
   104   0000e5 00              	defb	0
   104   0000e6 00              	defb	0
   104   0000e7 00              	defb	255
   104   0000e8 00              	defb	0
   104   0000e9 00              	defb	0
   104   0000ea 00              	defb	0
   104   0000eb 00              	defb	255
   104   0000ec 00              	defb	0
   104   0000ed 00              	defb	0
   104   0000ee 00              	defb	0
   104   0000ef 00              	defb	255
   104   0000f0 00              	defb	0
   104   0000f1 00              	defb	0
   104   0000f2 00              	defb	0
   104   0000f3 00              	defb	0
   104   0000f4 00              	defb	0
   104   0000f5 00              	defb	0
   104   0000f6 00              	defb	0
   104   0000f7 00              	defb	0
   104   0000f8 00              	defb	0
   104   0000f9 00              	defb	0
   104   0000fa 00              	defb	0
   104   0000fb 00              	defb	255
   104   0000fc 00              	defb	0
   104   0000fd 00              	defb	0
   104   0000fe 00              	defb	0
   104   0000ff 00              	defb	255
   104   000100 00              	defb	0
   104   000101 00              	defb	0
   104   000102 00              	defb	0
   104   000103 00              	defb	0
   104   000104 00              	defb	0
   104   000105 00              	defb	0
   104   000106 00              	defb	0
   104   000107 00              	defb	0
   104   000108 00              	defb	0
   104   000109 00              	defb	0
   104   00010a 00              	defb	0
   104   00010b 00              	defb	0
   104   00010c 00              	defb	0
   104   00010d 00              	defb	0
   104   00010e 00              	defb	0
   104   00010f 00              	defb	0
   104   000110 00              	defb	0
   104   000111 00              	defb	0
   104   000112 00              	defb	0
   104   000113 00              	defb	0
   104   000114 00              	defb	0
   104   000115 00              	defb	0
   104   000116 00              	defb	0
   104   000117 00              	defb	255
   104   000118 00              	defb	0
   104   000119 00              	defb	0
   104   00011a 00              	defb	0
   104   00011b 00              	defb	255
   104   00011c 00              	defb	0
   104   00011d 00              	defb	0
   104   00011e 00              	defb	0
   104   00011f 00              	defb	255
   104   000120 00              	defb	156
   104   000121 00              	defb	154
   104   000122 00              	defb	186
   104   000123 00              	defb	255
   104   000124 00              	defb	156
   104   000125 00              	defb	154
   104   000126 00              	defb	186
   104   000127 00              	defb	255
   104   000128 00              	defb	183
   104   000129 00              	defb	181
   104   00012a 00              	defb	204
   104   00012b 00              	defb	255
   104   00012c 00              	defb	183
   104   00012d 00              	defb	181
   104   00012e 00              	defb	204
   104   00012f 00              	defb	255
   104   000130 00              	defb	0
   104   000131 00              	defb	0
   104   000132 00              	defb	0
   104   000133 00              	defb	255
   104   000134 00              	defb	0
   104   000135 00              	defb	0
   104   000136 00              	defb	0
   104   000137 00              	defb	255
   104   000138 00              	defb	220
   104   000139 00              	defb	219
   104   00013a 00              	defb	230
   104   00013b 00              	defb	255
   104   00013c 00              	defb	0
   104   00013d 00              	defb	0
   104   00013e 00              	defb	0
   104   00013f 00              	defb	255
   104   000140 00              	defb	0
   104   000141 00              	defb	0
   104   000142 00              	defb	0
   104   000143 00              	defb	0
   104   000144 00              	defb	0
   104   000145 00              	defb	0
   104   000146 00              	defb	0
   104   000147 00              	defb	0
   104   000148 00              	defb	0
   104   000149 00              	defb	0
   104   00014a 00              	defb	0
   104   00014b 00              	defb	0
   104   00014c 00              	defb	0
   104   00014d 00              	defb	0
   104   00014e 00              	defb	0
   104   00014f 00              	defb	0
   104   000150 00              	defb	0
   104   000151 00              	defb	0
   104   000152 00              	defb	0
   104   000153 00              	defb	0
   104   000154 00              	defb	0
   104   000155 00              	defb	0
   104   000156 00              	defb	0
   104   000157 00              	defb	255
   104   000158 00              	defb	128
   104   000159 00              	defb	94
   104   00015a 00              	defb	77
   104   00015b 00              	defb	255
   104   00015c 00              	defb	0
   104   00015d 00              	defb	0
   104   00015e 00              	defb	0
   104   00015f 00              	defb	255
   104   000160 00              	defb	0
   104   000161 00              	defb	0
   104   000162 00              	defb	0
   104   000163 00              	defb	255
   104   000164 00              	defb	183
   104   000165 00              	defb	181
   104   000166 00              	defb	204
   104   000167 00              	defb	255
   104   000168 00              	defb	156
   104   000169 00              	defb	154
   104   00016a 00              	defb	186
   104   00016b 00              	defb	255
   104   00016c 00              	defb	156
   104   00016d 00              	defb	154
   104   00016e 00              	defb	186
   104   00016f 00              	defb	255
   104   000170 00              	defb	183
   104   000171 00              	defb	181
   104   000172 00              	defb	204
   104   000173 00              	defb	255
   104   000174 00              	defb	183
   104   000175 00              	defb	181
   104   000176 00              	defb	204
   104   000177 00              	defb	255
   104   000178 00              	defb	220
   104   000179 00              	defb	219
   104   00017a 00              	defb	230
   104   00017b 00              	defb	255
   104   00017c 00              	defb	0
   104   00017d 00              	defb	0
   104   00017e 00              	defb	0
   104   00017f 00              	defb	255
   104   000180 00              	defb	0
   104   000181 00              	defb	0
   104   000182 00              	defb	0
   104   000183 00              	defb	0
   104   000184 00              	defb	0
   104   000185 00              	defb	0
   104   000186 00              	defb	0
   104   000187 00              	defb	0
   104   000188 00              	defb	0
   104   000189 00              	defb	0
   104   00018a 00              	defb	0
   104   00018b 00              	defb	0
   104   00018c 00              	defb	0
   104   00018d 00              	defb	0
   104   00018e 00              	defb	0
   104   00018f 00              	defb	0
   104   000190 00              	defb	0
   104   000191 00              	defb	0
   104   000192 00              	defb	0
   104   000193 00              	defb	0
   104   000194 00              	defb	0
   104   000195 00              	defb	0
   104   000196 00              	defb	0
   104   000197 00              	defb	255
   104   000198 00              	defb	128
   104   000199 00              	defb	94
   104   00019a 00              	defb	77
   104   00019b 00              	defb	255
   104   00019c 00              	defb	0
   104   00019d 00              	defb	0
   104   00019e 00              	defb	0
   104   00019f 00              	defb	255
   104   0001a0 00              	defb	0
   104   0001a1 00              	defb	0
   104   0001a2 00              	defb	0
   104   0001a3 00              	defb	255
   104   0001a4 00              	defb	0
   104   0001a5 00              	defb	0
   104   0001a6 00              	defb	0
   104   0001a7 00              	defb	255
   104   0001a8 00              	defb	156
   104   0001a9 00              	defb	154
   104   0001aa 00              	defb	186
   104   0001ab 00              	defb	255
   104   0001ac 00              	defb	156
   104   0001ad 00              	defb	154
   104   0001ae 00              	defb	186
   104   0001af 00              	defb	255
   104   0001b0 00              	defb	156
   104   0001b1 00              	defb	154
   104   0001b2 00              	defb	186
   104   0001b3 00              	defb	255
   104   0001b4 00              	defb	183
   104   0001b5 00              	defb	181
   104   0001b6 00              	defb	204
   104   0001b7 00              	defb	255
   104   0001b8 00              	defb	220
   104   0001b9 00              	defb	219
   104   0001ba 00              	defb	230
   104   0001bb 00              	defb	255
   104   0001bc 00              	defb	0
   104   0001bd 00              	defb	0
   104   0001be 00              	defb	0
   104   0001bf 00              	defb	255
   104   0001c0 00              	defb	0
   104   0001c1 00              	defb	0
   104   0001c2 00              	defb	0
   104   0001c3 00              	defb	0
   104   0001c4 00              	defb	0
   104   0001c5 00              	defb	0
   104   0001c6 00              	defb	0
   104   0001c7 00              	defb	0
   104   0001c8 00              	defb	0
   104   0001c9 00              	defb	0
   104   0001ca 00              	defb	0
   104   0001cb 00              	defb	0
   104   0001cc 00              	defb	0
   104   0001cd 00              	defb	0
   104   0001ce 00              	defb	0
   104   0001cf 00              	defb	0
   104   0001d0 00              	defb	0
   104   0001d1 00              	defb	0
   104   0001d2 00              	defb	0
   104   0001d3 00              	defb	255
   104   0001d4 00              	defb	128
   104   0001d5 00              	defb	94
   104   0001d6 00              	defb	77
   104   0001d7 00              	defb	255
   104   0001d8 00              	defb	63
   104   0001d9 00              	defb	44
   104   0001da 00              	defb	22
   104   0001db 00              	defb	255
   104   0001dc 00              	defb	0
   104   0001dd 00              	defb	0
   104   0001de 00              	defb	0
   104   0001df 00              	defb	255
   104   0001e0 00              	defb	0
   104   0001e1 00              	defb	0
   104   0001e2 00              	defb	0
   104   0001e3 00              	defb	0
   104   0001e4 00              	defb	0
   104   0001e5 00              	defb	0
   104   0001e6 00              	defb	0
   104   0001e7 00              	defb	255
   104   0001e8 00              	defb	156
   104   0001e9 00              	defb	154
   104   0001ea 00              	defb	186
   104   0001eb 00              	defb	255
   104   0001ec 00              	defb	156
   104   0001ed 00              	defb	154
   104   0001ee 00              	defb	186
   104   0001ef 00              	defb	255
   104   0001f0 00              	defb	156
   104   0001f1 00              	defb	154
   104   0001f2 00              	defb	186
   104   0001f3 00              	defb	255
   104   0001f4 00              	defb	220
   104   0001f5 00              	defb	219
   104   0001f6 00              	defb	230
   104   0001f7 00              	defb	255
   104   0001f8 00              	defb	0
   104   0001f9 00              	defb	0
   104   0001fa 00              	defb	0
   104   0001fb 00              	defb	255
   104   0001fc 00              	defb	0
   104   0001fd 00              	defb	0
   104   0001fe 00              	defb	0
   104   0001ff 00              	defb	0
   104   000200 00              	defb	0
   104   000201 00              	defb	0
   104   000202 00              	defb	0
   104   000203 00              	defb	0
   104   000204 00              	defb	0
   104   000205 00              	defb	0
   104   000206 00              	defb	0
   104   000207 00              	defb	0
   104   000208 00              	defb	0
   104   000209 00              	defb	0
   104   00020a 00              	defb	0
   104   00020b 00              	defb	0
   104   00020c 00              	defb	0
   104   00020d 00              	defb	0
   104   00020e 00              	defb	0
   104   00020f 00              	defb	0
   104   000210 00              	defb	0
   104   000211 00              	defb	0
   104   000212 00              	defb	0
   104   000213 00              	defb	255
   104   000214 00              	defb	63
   104   000215 00              	defb	44
   104   000216 00              	defb	22
   104   000217 00              	defb	255
   104   000218 00              	defb	0
   104   000219 00              	defb	0
   104   00021a 00              	defb	0
   104   00021b 00              	defb	255
   104   00021c 00              	defb	0
   104   00021d 00              	defb	0
   104   00021e 00              	defb	0
   104   00021f 00              	defb	0
   104   000220 00              	defb	0
   104   000221 00              	defb	0
   104   000222 00              	defb	0
   104   000223 00              	defb	0
   104   000224 00              	defb	0
   104   000225 00              	defb	0
   104   000226 00              	defb	0
   104   000227 00              	defb	255
   104   000228 00              	defb	156
   104   000229 00              	defb	154
   104   00022a 00              	defb	186
   104   00022b 00              	defb	255
   104   00022c 00              	defb	156
   104   00022d 00              	defb	154
   104   00022e 00              	defb	186
   104   00022f 00              	defb	255
   104   000230 00              	defb	183
   104   000231 00              	defb	181
   104   000232 00              	defb	204
   104   000233 00              	defb	255
   104   000234 00              	defb	220
   104   000235 00              	defb	219
   104   000236 00              	defb	230
   104   000237 00              	defb	255
   104   000238 00              	defb	0
   104   000239 00              	defb	0
   104   00023a 00              	defb	0
   104   00023b 00              	defb	255
   104   00023c 00              	defb	0
   104   00023d 00              	defb	0
   104   00023e 00              	defb	0
   104   00023f 00              	defb	0
   104   000240 00              	defb	0
   104   000241 00              	defb	0
   104   000242 00              	defb	0
   104   000243 00              	defb	0
   104   000244 00              	defb	0
   104   000245 00              	defb	0
   104   000246 00              	defb	0
   104   000247 00              	defb	0
   104   000248 00              	defb	0
   104   000249 00              	defb	0
   104   00024a 00              	defb	0
   104   00024b 00              	defb	0
   104   00024c 00              	defb	0
   104   00024d 00              	defb	0
   104   00024e 00              	defb	0
   104   00024f 00              	defb	255
   104   000250 00              	defb	128
   104   000251 00              	defb	94
   104   000252 00              	defb	77
   104   000253 00              	defb	255
   104   000254 00              	defb	63
   104   000255 00              	defb	44
   104   000256 00              	defb	22
   104   000257 00              	defb	255
   104   000258 00              	defb	0
   104   000259 00              	defb	0
   104   00025a 00              	defb	0
   104   00025b 00              	defb	255
   104   00025c 00              	defb	0
   104   00025d 00              	defb	0
   104   00025e 00              	defb	0
   104   00025f 00              	defb	0
   104   000260 00              	defb	0
   104   000261 00              	defb	0
   104   000262 00              	defb	0
   104   000263 00              	defb	0
   104   000264 00              	defb	0
   104   000265 00              	defb	0
   104   000266 00              	defb	0
   104   000267 00              	defb	255
   104   000268 00              	defb	183
   104   000269 00              	defb	181
   104   00026a 00              	defb	204
   104   00026b 00              	defb	255
   104   00026c 00              	defb	183
   104   00026d 00              	defb	181
   104   00026e 00              	defb	204
   104   00026f 00              	defb	255
   104   000270 00              	defb	220
   104   000271 00              	defb	219
   104   000272 00              	defb	230
   104   000273 00              	defb	255
   104   000274 00              	defb	0
   104   000275 00              	defb	0
   104   000276 00              	defb	0
   104   000277 00              	defb	255
   104   000278 00              	defb	0
   104   000279 00              	defb	0
   104   00027a 00              	defb	0
   104   00027b 00              	defb	0
   104   00027c 00              	defb	0
   104   00027d 00              	defb	0
   104   00027e 00              	defb	0
   104   00027f 00              	defb	0
   104   000280 00              	defb	0
   104   000281 00              	defb	0
   104   000282 00              	defb	0
   104   000283 00              	defb	0
   104   000284 00              	defb	0
   104   000285 00              	defb	0
   104   000286 00              	defb	0
   104   000287 00              	defb	0
   104   000288 00              	defb	0
   104   000289 00              	defb	0
   104   00028a 00              	defb	0
   104   00028b 00              	defb	0
   104   00028c 00              	defb	0
   104   00028d 00              	defb	0
   104   00028e 00              	defb	0
   104   00028f 00              	defb	255
   104   000290 00              	defb	128
   104   000291 00              	defb	94
   104   000292 00              	defb	77
   104   000293 00              	defb	255
   104   000294 00              	defb	63
   104   000295 00              	defb	44
   104   000296 00              	defb	22
   104   000297 00              	defb	255
   104   000298 00              	defb	0
   104   000299 00              	defb	0
   104   00029a 00              	defb	0
   104   00029b 00              	defb	255
   104   00029c 00              	defb	0
   104   00029d 00              	defb	0
   104   00029e 00              	defb	0
   104   00029f 00              	defb	0
   104   0002a0 00              	defb	0
   104   0002a1 00              	defb	0
   104   0002a2 00              	defb	0
   104   0002a3 00              	defb	255
   104   0002a4 00              	defb	220
   104   0002a5 00              	defb	219
   104   0002a6 00              	defb	230
   104   0002a7 00              	defb	255
   104   0002a8 00              	defb	220
   104   0002a9 00              	defb	219
   104   0002aa 00              	defb	230
   104   0002ab 00              	defb	255
   104   0002ac 00              	defb	220
   104   0002ad 00              	defb	219
   104   0002ae 00              	defb	230
   104   0002af 00              	defb	255
   104   0002b0 00              	defb	0
   104   0002b1 00              	defb	0
   104   0002b2 00              	defb	0
   104   0002b3 00              	defb	255
   104   0002b4 00              	defb	0
   104   0002b5 00              	defb	0
   104   0002b6 00              	defb	0
   104   0002b7 00              	defb	0
   104   0002b8 00              	defb	0
   104   0002b9 00              	defb	0
   104   0002ba 00              	defb	0
   104   0002bb 00              	defb	0
   104   0002bc 00              	defb	0
   104   0002bd 00              	defb	0
   104   0002be 00              	defb	0
   104   0002bf 00              	defb	0
   104   0002c0 00              	defb	0
   104   0002c1 00              	defb	0
   104   0002c2 00              	defb	0
   104   0002c3 00              	defb	255
   104   0002c4 00              	defb	0
   104   0002c5 00              	defb	0
   104   0002c6 00              	defb	0
   104   0002c7 00              	defb	255
   104   0002c8 00              	defb	0
   104   0002c9 00              	defb	0
   104   0002ca 00              	defb	0
   104   0002cb 00              	defb	255
   104   0002cc 00              	defb	128
   104   0002cd 00              	defb	94
   104   0002ce 00              	defb	77
   104   0002cf 00              	defb	255
   104   0002d0 00              	defb	63
   104   0002d1 00              	defb	44
   104   0002d2 00              	defb	22
   104   0002d3 00              	defb	255
   104   0002d4 00              	defb	0
   104   0002d5 00              	defb	0
   104   0002d6 00              	defb	0
   104   0002d7 00              	defb	255
   104   0002d8 00              	defb	0
   104   0002d9 00              	defb	0
   104   0002da 00              	defb	0
   104   0002db 00              	defb	0
   104   0002dc 00              	defb	0
   104   0002dd 00              	defb	0
   104   0002de 00              	defb	0
   104   0002df 00              	defb	0
   104   0002e0 00              	defb	0
   104   0002e1 00              	defb	0
   104   0002e2 00              	defb	0
   104   0002e3 00              	defb	255
   104   0002e4 00              	defb	220
   104   0002e5 00              	defb	219
   104   0002e6 00              	defb	230
   104   0002e7 00              	defb	255
   104   0002e8 00              	defb	0
   104   0002e9 00              	defb	0
   104   0002ea 00              	defb	0
   104   0002eb 00              	defb	255
   104   0002ec 00              	defb	0
   104   0002ed 00              	defb	0
   104   0002ee 00              	defb	0
   104   0002ef 00              	defb	255
   104   0002f0 00              	defb	0
   104   0002f1 00              	defb	0
   104   0002f2 00              	defb	0
   104   0002f3 00              	defb	0
   104   0002f4 00              	defb	0
   104   0002f5 00              	defb	0
   104   0002f6 00              	defb	0
   104   0002f7 00              	defb	0
   104   0002f8 00              	defb	0
   104   0002f9 00              	defb	0
   104   0002fa 00              	defb	0
   104   0002fb 00              	defb	0
   104   0002fc 00              	defb	0
   104   0002fd 00              	defb	0
   104   0002fe 00              	defb	0
   104   0002ff 00              	defb	0
   104   000300 00              	defb	0
   104   000301 00              	defb	0
   104   000302 00              	defb	0
   104   000303 00              	defb	255
   104   000304 00              	defb	128
   104   000305 00              	defb	94
   104   000306 00              	defb	77
   104   000307 00              	defb	255
   104   000308 00              	defb	128
   104   000309 00              	defb	94
   104   00030a 00              	defb	77
   104   00030b 00              	defb	255
   104   00030c 00              	defb	63
   104   00030d 00              	defb	44
   104   00030e 00              	defb	22
   104   00030f 00              	defb	255
   104   000310 00              	defb	0
   104   000311 00              	defb	0
   104   000312 00              	defb	0
   104   000313 00              	defb	255
   104   000314 00              	defb	0
   104   000315 00              	defb	0
   104   000316 00              	defb	0
   104   000317 00              	defb	0
   104   000318 00              	defb	0
   104   000319 00              	defb	0
   104   00031a 00              	defb	0
   104   00031b 00              	defb	0
   104   00031c 00              	defb	0
   104   00031d 00              	defb	0
   104   00031e 00              	defb	0
   104   00031f 00              	defb	0
   104   000320 00              	defb	0
   104   000321 00              	defb	0
   104   000322 00              	defb	0
   104   000323 00              	defb	255
   104   000324 00              	defb	0
   104   000325 00              	defb	0
   104   000326 00              	defb	0
   104   000327 00              	defb	255
   104   000328 00              	defb	0
   104   000329 00              	defb	0
   104   00032a 00              	defb	0
   104   00032b 00              	defb	0
   104   00032c 00              	defb	0
   104   00032d 00              	defb	0
   104   00032e 00              	defb	0
   104   00032f 00              	defb	0
   104   000330 00              	defb	0
   104   000331 00              	defb	0
   104   000332 00              	defb	0
   104   000333 00              	defb	0
   104   000334 00              	defb	0
   104   000335 00              	defb	0
   104   000336 00              	defb	0
   104   000337 00              	defb	0
   104   000338 00              	defb	0
   104   000339 00              	defb	0
   104   00033a 00              	defb	0
   104   00033b 00              	defb	0
   104   00033c 00              	defb	0
   104   00033d 00              	defb	0
   104   00033e 00              	defb	0
   104   00033f 00              	defb	0
   104   000340 00              	defb	0
   104   000341 00              	defb	0
   104   000342 00              	defb	0
   104   000343 00              	defb	255
   104   000344 00              	defb	63
   104   000345 00              	defb	44
   104   000346 00              	defb	22
   104   000347 00              	defb	255
   104   000348 00              	defb	63
   104   000349 00              	defb	44
   104   00034a 00              	defb	22
   104   00034b 00              	defb	255
   104   00034c 00              	defb	0
   104   00034d 00              	defb	0
   104   00034e 00              	defb	0
   104   00034f 00              	defb	255
   104   000350 00              	defb	0
   104   000351 00              	defb	0
   104   000352 00              	defb	0
   104   000353 00              	defb	0
   104   000354 00              	defb	0
   104   000355 00              	defb	0
   104   000356 00              	defb	0
   104   000357 00              	defb	0
   104   000358 00              	defb	0
   104   000359 00              	defb	0
   104   00035a 00              	defb	0
   104   00035b 00              	defb	0
   104   00035c 00              	defb	0
   104   00035d 00              	defb	0
   104   00035e 00              	defb	0
   104   00035f 00              	defb	0
   104   000360 00              	defb	0
   104   000361 00              	defb	0
   104   000362 00              	defb	0
   104   000363 00              	defb	0
   104   000364 00              	defb	0
   104   000365 00              	defb	0
   104   000366 00              	defb	0
   104   000367 00              	defb	0
   104   000368 00              	defb	0
   104   000369 00              	defb	0
   104   00036a 00              	defb	0
   104   00036b 00              	defb	0
   104   00036c 00              	defb	0
   104   00036d 00              	defb	0
   104   00036e 00              	defb	0
   104   00036f 00              	defb	0
   104   000370 00              	defb	0
   104   000371 00              	defb	0
   104   000372 00              	defb	0
   104   000373 00              	defb	0
   104   000374 00              	defb	0
   104   000375 00              	defb	0
   104   000376 00              	defb	0
   104   000377 00              	defb	0
   104   000378 00              	defb	0
   104   000379 00              	defb	0
   104   00037a 00              	defb	0
   104   00037b 00              	defb	0
   104   00037c 00              	defb	0
   104   00037d 00              	defb	0
   104   00037e 00              	defb	0
   104   00037f 00              	defb	0
   104   000380 00              	defb	0
   104   000381 00              	defb	0
   104   000382 00              	defb	0
   104   000383 00              	defb	0
   104   000384 00              	defb	0
   104   000385 00              	defb	0
   104   000386 00              	defb	0
   104   000387 00              	defb	255
   104   000388 00              	defb	0
   104   000389 00              	defb	0
   104   00038a 00              	defb	0
   104   00038b 00              	defb	255
   104   00038c 00              	defb	0
   104   00038d 00              	defb	0
   104   00038e 00              	defb	0
   104   00038f 00              	defb	0
   104   000390 00              	defb	0
   104   000391 00              	defb	0
   104   000392 00              	defb	0
   104   000393 00              	defb	0
   104   000394 00              	defb	0
   104   000395 00              	defb	0
   104   000396 00              	defb	0
   104   000397 00              	defb	0
   104   000398 00              	defb	0
   104   000399 00              	defb	0
   104   00039a 00              	defb	0
   104   00039b 00              	defb	0
   104   00039c 00              	defb	0
   104   00039d 00              	defb	0
   104   00039e 00              	defb	0
   104   00039f 00              	defb	0
   104   0003a0 00              	defb	0
   104   0003a1 00              	defb	0
   104   0003a2 00              	defb	0
   104   0003a3 00              	defb	0
   104   0003a4 00              	defb	0
   104   0003a5 00              	defb	0
   104   0003a6 00              	defb	0
   104   0003a7 00              	defb	0
   104   0003a8 00              	defb	0
   104   0003a9 00              	defb	0
   104   0003aa 00              	defb	0
   104   0003ab 00              	defb	0
   104   0003ac 00              	defb	0
   104   0003ad 00              	defb	0
   104   0003ae 00              	defb	0
   104   0003af 00              	defb	0
   104   0003b0 00              	defb	0
   104   0003b1 00              	defb	0
   104   0003b2 00              	defb	0
   104   0003b3 00              	defb	0
   104   0003b4 00              	defb	0
   104   0003b5 00              	defb	0
   104   0003b6 00              	defb	0
   104   0003b7 00              	defb	0
   104   0003b8 00              	defb	0
   104   0003b9 00              	defb	0
   104   0003ba 00              	defb	0
   104   0003bb 00              	defb	0
   104   0003bc 00              	defb	0
   104   0003bd 00              	defb	0
   104   0003be 00              	defb	0
   104   0003bf 00              	defb	0
   104                          	SECTION	code_compiler
   104                          	C_LINE	166,"testesp.h"
   166                          	SECTION	data_compiler
   166                          ._GLYPH_TEST
   166   0003c0 00              	defb	7
   166   0003c1 00              	defb	224
   166   0003c2 00              	defb	31
   166   0003c3 00              	defb	248
   166   0003c4 00              	defb	63
   166   0003c5 00              	defb	252
   166   0003c6 00              	defb	109
   166   0003c7 00              	defb	182
   166   0003c8 00              	defb	255
   166   0003c9 00              	defb	255
   166   0003ca 00              	defb	57
   166   0003cb 00              	defb	156
   166   0003cc 00              	defb	16
   166   0003cd 00              	defb	8
   166                          	SECTION	code_compiler
   166                          	C_LINE	8,"testesp.c"
testesp.c:
     8                          	C_LINE	0,"esplowlevel.h"
esplowlevel.h:
                                	C_LINE	8,"esplowlevel.h"
     8                          	C_LINE	9,"esplowlevel.h"
     9                          	C_LINE	10,"esplowlevel.h"
    10                          	C_LINE	11,"esplowlevel.h"
    11                          	C_LINE	12,"esplowlevel.h"
    12                          	C_LINE	13,"esplowlevel.h"
    13                          	C_LINE	14,"esplowlevel.h"
    14                          	C_LINE	15,"esplowlevel.h"
    15                          	C_LINE	16,"esplowlevel.h"
    16                          	C_LINE	17,"esplowlevel.h"
    17                          	C_LINE	9,"testesp.c"
testesp.c:
     9                          	C_LINE	0,"espui.h"
espui.h:
                                	C_LINE	3,"espui.h"
     3                          	C_LINE	4,"espui.h"
     4                          	C_LINE	5,"espui.h"
     5                          	C_LINE	6,"espui.h"
     6                          	C_LINE	7,"espui.h"
     7                          	C_LINE	8,"espui.h"
     8                          	C_LINE	9,"espui.h"
     9                          	C_LINE	10,"espui.h"
    10                          	C_LINE	10,"testesp.c"
testesp.c:
    10                          	C_LINE	0,"espconsole.h"
espconsole.h:
                                	C_LINE	3,"espconsole.h"
     3                          	C_LINE	4,"espconsole.h"
     4                          	C_LINE	5,"espconsole.h"
     5                          	C_LINE	6,"espconsole.h"
     6                          	C_LINE	7,"espconsole.h"
     7                          	C_LINE	8,"espconsole.h"
     8                          	C_LINE	11,"testesp.c"
testesp.c:
    11                          	C_LINE	0,"espserial.h"
espserial.h:
                                	C_LINE	2,"espserial.h"
     2                          	C_LINE	3,"espserial.h"
     3                          	C_LINE	4,"espserial.h"
     4                          	C_LINE	5,"espserial.h"
     5                          	C_LINE	6,"espserial.h"
     6                          	C_LINE	7,"espserial.h"
     7                          	C_LINE	9,"espserial.h"
     9                          	C_LINE	10,"espserial.h"
    10                          	C_LINE	11,"espserial.h"
    11                          	C_LINE	12,"espserial.h"
    12                          	C_LINE	13,"espserial.h"
    13                          	C_LINE	14,"espserial.h"
    14                          	C_LINE	12,"testesp.c"
testesp.c:
    12                          	C_LINE	0,"espsound.h"
espsound.h:
                                	C_LINE	3,"espsound.h"
     3                          	C_LINE	4,"espsound.h"
     4                          	C_LINE	5,"espsound.h"
     5                          	C_LINE	13,"testesp.c"
testesp.c:
    13                          	C_LINE	15,"testesp.c"
    15                          	C_LINE	23,"testesp.c"
    23                          
    23                          ; Function clear_screen_test flags 0x00000200 __smallc
    23                          ; int clear_screen_test()
    23                          	C_LINE	24,"testesp.c::clear_screen_test::0::0"
testesp.c::clear_screen_test::0::0:
    24                          ._clear_screen_test
    24   000000 210000          	ld	hl,17	;const
    24   000003 e5              	push	hl
    24   000004 cd0000          	call	_esp0_outbyte
    24   000007 210000          	ld	hl,i_1+0
    24   00000a e3              	ex	(sp),hl
    24   00000b cd0000          	call	_printmessage
    24   00000e c1              	pop	bc
    24   00000f c9              	ret
    24                          
    24                          
    24                          	C_LINE	28,"testesp.c::clear_screen_test::0::1"
testesp.c::clear_screen_test::0::1:
    28                          
    28                          ; Function set_resolution_test flags 0x00000200 __smallc
    28                          ; int set_resolution_test()
    28                          	C_LINE	29,"testesp.c::set_resolution_test::0::1"
testesp.c::set_resolution_test::0::1:
    29                          ._set_resolution_test
    29   000010 3b              	dec	sp
    29   000011 e1              	pop	hl
    29   000012 2e00            	ld	l,0
    29   000014 e5              	push	hl
    29   000015 210000          	ld	hl,i_1+24
    29   000018 e5              	push	hl
    29   000019 3e00            	ld	a,1
    29   00001b cd0000          	call	printf
    29   00001e 210000          	ld	hl,i_1+36
    29   000021 e3              	ex	(sp),hl
    29   000022 cd0000          	call	_printcentered
    29   000025 c1              	pop	bc
    29   000026 210000          	ld	hl,i_1+65
    29   000029 e5              	push	hl
    29   00002a cd0000          	call	puts
    29   00002d 210000          	ld	hl,i_1+67
    29   000030 e3              	ex	(sp),hl
    29   000031 cd0000          	call	_printcenteredbold
    29   000034 c1              	pop	bc
    29   000035 210000          	ld	hl,i_1+65
    29   000038 e5              	push	hl
    29   000039 cd0000          	call	puts
    29   00003c 210000          	ld	hl,i_1+86
    29   00003f e3              	ex	(sp),hl
    29   000040 cd0000          	call	_printcentered
    29   000043 c1              	pop	bc
    29   000044 210000          	ld	hl,i_1+134
    29   000047 e5              	push	hl
    29   000048 3e00            	ld	a,1
    29   00004a cd0000          	call	printf
    29   00004d c1              	pop	bc
    29   00004e 210000          	ld	hl,0	;const
    29   000051 39              	add	hl,sp
    29   000052 e5              	push	hl
    29   000053 cd0000          	call	_getbyte
    29   000056 7d              	ld	a,l
    29   000057 d1              	pop	de
    29   000058 12              	ld	(de),a
    29   000059 210000          	ld	hl,15	;const
    29   00005c e5              	push	hl
    29   00005d cd0000          	call	_esp0_outbyte
    29   000060 c1              	pop	bc
    29   000061 210000          	ld	hl,0	;const
    29   000064 39              	add	hl,sp
    29   000065 cd0000          	call	l_gchar
    29   000068 e5              	push	hl
    29   000069 cd0000          	call	_esp0_outbyte
    29   00006c c1              	pop	bc
    29   00006d 33              	inc	sp
    29   00006e c9              	ret
    29                          
    29                          
    29                          	C_LINE	46,"testesp.c::set_resolution_test::0::2"
testesp.c::set_resolution_test::0::2:
    46                          
    46                          ; Function set_font_test flags 0x00000200 __smallc
    46                          ; int set_font_test()
    46                          	C_LINE	47,"testesp.c::set_font_test::0::2"
testesp.c::set_font_test::0::2:
    47                          ._set_font_test
    47   00006f 3b              	dec	sp
    47   000070 e1              	pop	hl
    47   000071 2e00            	ld	l,0
    47   000073 e5              	push	hl
    47   000074 210000          	ld	hl,i_1+24
    47   000077 e5              	push	hl
    47   000078 3e00            	ld	a,1
    47   00007a cd0000          	call	printf
    47   00007d 210000          	ld	hl,i_1+36
    47   000080 e3              	ex	(sp),hl
    47   000081 cd0000          	call	_printcentered
    47   000084 c1              	pop	bc
    47   000085 210000          	ld	hl,i_1+65
    47   000088 e5              	push	hl
    47   000089 cd0000          	call	puts
    47   00008c 210000          	ld	hl,i_1+163
    47   00008f e3              	ex	(sp),hl
    47   000090 cd0000          	call	_printcenteredbold
    47   000093 c1              	pop	bc
    47   000094 210000          	ld	hl,i_1+65
    47   000097 e5              	push	hl
    47   000098 cd0000          	call	puts
    47   00009b 210000          	ld	hl,i_1+176
    47   00009e e3              	ex	(sp),hl
    47   00009f cd0000          	call	_printcentered
    47   0000a2 c1              	pop	bc
    47   0000a3 210000          	ld	hl,i_1+218
    47   0000a6 e5              	push	hl
    47   0000a7 3e00            	ld	a,1
    47   0000a9 cd0000          	call	printf
    47   0000ac c1              	pop	bc
    47   0000ad 210000          	ld	hl,0	;const
    47   0000b0 39              	add	hl,sp
    47   0000b1 e5              	push	hl
    47   0000b2 cd0000          	call	_getbyte
    47   0000b5 7d              	ld	a,l
    47   0000b6 d1              	pop	de
    47   0000b7 12              	ld	(de),a
    47   0000b8 210000          	ld	hl,16	;const
    47   0000bb e5              	push	hl
    47   0000bc cd0000          	call	_esp0_outbyte
    47   0000bf c1              	pop	bc
    47   0000c0 210000          	ld	hl,0	;const
    47   0000c3 39              	add	hl,sp
    47   0000c4 cd0000          	call	l_gchar
    47   0000c7 e5              	push	hl
    47   0000c8 cd0000          	call	_esp0_outbyte
    47   0000cb c1              	pop	bc
    47   0000cc 33              	inc	sp
    47   0000cd c9              	ret
    47                          
    47                          
    47                          	C_LINE	64,"testesp.c::set_font_test::0::3"
testesp.c::set_font_test::0::3:
    64                          
    64                          ; Function copy_rectangle_test flags 0x00000200 __smallc
    64                          ; int copy_rectangle_test()
    64                          	C_LINE	65,"testesp.c::copy_rectangle_test::0::3"
testesp.c::copy_rectangle_test::0::3:
    65                          ._copy_rectangle_test
    65   0000ce 210000          	ld	hl,65524	;const
    65   0000d1 39              	add	hl,sp
    65   0000d2 f9              	ld	sp,hl
    65   0000d3 210000          	ld	hl,i_1+24
    65   0000d6 e5              	push	hl
    65   0000d7 3e00            	ld	a,1
    65   0000d9 cd0000          	call	printf
    65   0000dc 210000          	ld	hl,i_1+36
    65   0000df e3              	ex	(sp),hl
    65   0000e0 cd0000          	call	_printcentered
    65   0000e3 c1              	pop	bc
    65   0000e4 210000          	ld	hl,i_1+158
    65   0000e7 e5              	push	hl
    65   0000e8 cd0000          	call	puts
    65   0000eb 210000          	ld	hl,i_1+241
    65   0000ee e3              	ex	(sp),hl
    65   0000ef cd0000          	call	_printcentered
    65   0000f2 c1              	pop	bc
    65   0000f3 210000          	ld	hl,i_1+279
    65   0000f6 e5              	push	hl
    65   0000f7 cd0000          	call	puts
    65   0000fa c1              	pop	bc
    65   0000fb 210000          	ld	hl,i_1+284
    65   0000fe e5              	push	hl
    65   0000ff 3e00            	ld	a,1
    65   000101 cd0000          	call	printf
    65   000104 c1              	pop	bc
    65   000105 210000          	ld	hl,i_1+305
    65   000108 e5              	push	hl
    65   000109 3e00            	ld	a,1
    65   00010b cd0000          	call	printf
    65   00010e c1              	pop	bc
    65   00010f 210000          	ld	hl,i_1+326
    65   000112 e5              	push	hl
    65   000113 3e00            	ld	a,1
    65   000115 cd0000          	call	printf
    65   000118 c1              	pop	bc
    65   000119 210000          	ld	hl,i_1+347
    65   00011c e5              	push	hl
    65   00011d 3e00            	ld	a,1
    65   00011f cd0000          	call	printf
    65   000122 c1              	pop	bc
    65   000123 210000          	ld	hl,i_1+368
    65   000126 e5              	push	hl
    65   000127 3e00            	ld	a,1
    65   000129 cd0000          	call	printf
    65   00012c c1              	pop	bc
    65   00012d 210000          	ld	hl,i_1+389
    65   000130 e5              	push	hl
    65   000131 3e00            	ld	a,1
    65   000133 cd0000          	call	printf
    65   000136 c1              	pop	bc
    65   000137 210000          	ld	hl,i_1+410
    65   00013a e5              	push	hl
    65   00013b 3e00            	ld	a,1
    65   00013d cd0000          	call	printf
    65   000140 c1              	pop	bc
    65   000141 210000          	ld	hl,0	;const
    65   000144 39              	add	hl,sp
    65   000145 e5              	push	hl
    65   000146 cd0000          	call	_getint
    65   000149 d1              	pop	de
    65   00014a cd0000          	call	l_pint
    65   00014d 210000          	ld	hl,i_1+423
    65   000150 e5              	push	hl
    65   000151 3e00            	ld	a,1
    65   000153 cd0000          	call	printf
    65   000156 c1              	pop	bc
    65   000157 210000          	ld	hl,2	;const
    65   00015a 39              	add	hl,sp
    65   00015b e5              	push	hl
    65   00015c cd0000          	call	_getint
    65   00015f d1              	pop	de
    65   000160 cd0000          	call	l_pint
    65   000163 210000          	ld	hl,i_1+436
    65   000166 e5              	push	hl
    65   000167 3e00            	ld	a,1
    65   000169 cd0000          	call	printf
    65   00016c c1              	pop	bc
    65   00016d 210000          	ld	hl,4	;const
    65   000170 39              	add	hl,sp
    65   000171 e5              	push	hl
    65   000172 cd0000          	call	_getint
    65   000175 d1              	pop	de
    65   000176 cd0000          	call	l_pint
    65   000179 210000          	ld	hl,i_1+449
    65   00017c e5              	push	hl
    65   00017d 3e00            	ld	a,1
    65   00017f cd0000          	call	printf
    65   000182 c1              	pop	bc
    65   000183 210000          	ld	hl,6	;const
    65   000186 39              	add	hl,sp
    65   000187 e5              	push	hl
    65   000188 cd0000          	call	_getint
    65   00018b d1              	pop	de
    65   00018c cd0000          	call	l_pint
    65   00018f 210000          	ld	hl,i_1+462
    65   000192 e5              	push	hl
    65   000193 3e00            	ld	a,1
    65   000195 cd0000          	call	printf
    65   000198 c1              	pop	bc
    65   000199 210000          	ld	hl,8	;const
    65   00019c 39              	add	hl,sp
    65   00019d e5              	push	hl
    65   00019e cd0000          	call	_getint
    65   0001a1 d1              	pop	de
    65   0001a2 cd0000          	call	l_pint
    65   0001a5 210000          	ld	hl,i_1+475
    65   0001a8 e5              	push	hl
    65   0001a9 3e00            	ld	a,1
    65   0001ab cd0000          	call	printf
    65   0001ae c1              	pop	bc
    65   0001af 210000          	ld	hl,10	;const
    65   0001b2 39              	add	hl,sp
    65   0001b3 e5              	push	hl
    65   0001b4 cd0000          	call	_getint
    65   0001b7 d1              	pop	de
    65   0001b8 cd0000          	call	l_pint
    65   0001bb 210000          	ld	hl,18	;const
    65   0001be e5              	push	hl
    65   0001bf cd0000          	call	_esp0_outbyte
    65   0001c2 c1              	pop	bc
    65   0001c3 210000          	ld	hl,0	;const
    65   0001c6 39              	add	hl,sp
    65   0001c7 e5              	push	hl
    65   0001c8 210000          	ld	hl,12	;const
    65   0001cb e5              	push	hl
    65   0001cc cd0000          	call	_esp0_outstruct
    65   0001cf c1              	pop	bc
    65   0001d0 c1              	pop	bc
    65   0001d1 210000          	ld	hl,12	;const
    65   0001d4 39              	add	hl,sp
    65   0001d5 f9              	ld	sp,hl
    65   0001d6 c9              	ret
    65                          
    65                          
    65                          	C_LINE	91,"testesp.c::copy_rectangle_test::0::4"
testesp.c::copy_rectangle_test::0::4:
    91                          
    91                          ; Function draw_bitmap_test flags 0x00000200 __smallc
    91                          ; int draw_bitmap_test()
    91                          	C_LINE	92,"testesp.c::draw_bitmap_test::0::4"
testesp.c::draw_bitmap_test::0::4:
    92                          ._draw_bitmap_test
    92   0001d7 210000          	ld	hl,65525	;const
    92   0001da 39              	add	hl,sp
    92   0001db f9              	ld	sp,hl
    92   0001dc 210000          	ld	hl,i_1+24
    92   0001df e5              	push	hl
    92   0001e0 3e00            	ld	a,1
    92   0001e2 cd0000          	call	printf
    92   0001e5 210000          	ld	hl,i_1+36
    92   0001e8 e3              	ex	(sp),hl
    92   0001e9 cd0000          	call	_printcentered
    92   0001ec c1              	pop	bc
    92   0001ed 210000          	ld	hl,i_1+158
    92   0001f0 e5              	push	hl
    92   0001f1 cd0000          	call	puts
    92   0001f4 210000          	ld	hl,i_1+488
    92   0001f7 e3              	ex	(sp),hl
    92   0001f8 cd0000          	call	_printcentered
    92   0001fb c1              	pop	bc
    92   0001fc 210000          	ld	hl,i_1+279
    92   0001ff e5              	push	hl
    92   000200 cd0000          	call	puts
    92   000203 c1              	pop	bc
    92   000204 210000          	ld	hl,i_1+507
    92   000207 e5              	push	hl
    92   000208 3e00            	ld	a,1
    92   00020a cd0000          	call	printf
    92   00020d c1              	pop	bc
    92   00020e 210000          	ld	hl,i_1+528
    92   000211 e5              	push	hl
    92   000212 3e00            	ld	a,1
    92   000214 cd0000          	call	printf
    92   000217 c1              	pop	bc
    92   000218 210000          	ld	hl,i_1+410
    92   00021b e5              	push	hl
    92   00021c 3e00            	ld	a,1
    92   00021e cd0000          	call	printf
    92   000221 c1              	pop	bc
    92   000222 210000          	ld	hl,0	;const
    92   000225 39              	add	hl,sp
    92   000226 e5              	push	hl
    92   000227 cd0000          	call	_getint
    92   00022a d1              	pop	de
    92   00022b cd0000          	call	l_pint
    92   00022e 210000          	ld	hl,i_1+423
    92   000231 e5              	push	hl
    92   000232 3e00            	ld	a,1
    92   000234 cd0000          	call	printf
    92   000237 c1              	pop	bc
    92   000238 210000          	ld	hl,2	;const
    92   00023b 39              	add	hl,sp
    92   00023c e5              	push	hl
    92   00023d cd0000          	call	_getint
    92   000240 d1              	pop	de
    92   000241 cd0000          	call	l_pint
    92   000244 210000          	ld	hl,4	;const
    92   000247 39              	add	hl,sp
    92   000248 3600            	ld	(hl),16
    92   00024a 23              	inc	hl
    92   00024b 3600            	ld	(hl),0
    92   00024d 210000          	ld	hl,6	;const
    92   000250 39              	add	hl,sp
    92   000251 3600            	ld	(hl),15
    92   000253 23              	inc	hl
    92   000254 3600            	ld	(hl),0
    92   000256 210000          	ld	hl,8	;const
    92   000259 39              	add	hl,sp
    92   00025a 54              	ld	d,h
    92   00025b 5d              	ld	e,l
    92   00025c 3e00            	ld	a,4
    92   00025e 12              	ld	(de),a
    92   00025f 210000          	ld	hl,9	;const
    92   000262 39              	add	hl,sp
    92   000263 3600            	ld	(hl),192
    92   000265 23              	inc	hl
    92   000266 3600            	ld	(hl),3
    92   000268 210000          	ld	hl,19	;const
    92   00026b e5              	push	hl
    92   00026c cd0000          	call	_esp0_outbyte
    92   00026f c1              	pop	bc
    92   000270 210000          	ld	hl,0	;const
    92   000273 39              	add	hl,sp
    92   000274 e5              	push	hl
    92   000275 210000          	ld	hl,11	;const
    92   000278 e5              	push	hl
    92   000279 cd0000          	call	_esp0_outstruct
    92   00027c c1              	pop	bc
    92   00027d c1              	pop	bc
    92   00027e 210000          	ld	hl,_BITMAP_TEST
    92   000281 e5              	push	hl
    92   000282 210000          	ld	hl,960	;const
    92   000285 e5              	push	hl
    92   000286 cd0000          	call	_esp0_outstruct
    92   000289 c1              	pop	bc
    92   00028a c1              	pop	bc
    92   00028b 210000          	ld	hl,11	;const
    92   00028e 39              	add	hl,sp
    92   00028f f9              	ld	sp,hl
    92   000290 c9              	ret
    92                          
    92                          
    92                          	C_LINE	116,"testesp.c::draw_bitmap_test::0::5"
testesp.c::draw_bitmap_test::0::5:
   116                          
   116                          ; Function draw_char_test flags 0x00000200 __smallc
   116                          ; int draw_char_test()
   116                          	C_LINE	117,"testesp.c::draw_char_test::0::5"
testesp.c::draw_char_test::0::5:
   117                          ._draw_char_test
   117   000291 210000          	ld	hl,65508	;const
   117   000294 39              	add	hl,sp
   117   000295 f9              	ld	sp,hl
   117   000296 210000          	ld	hl,i_1+24
   117   000299 e5              	push	hl
   117   00029a 3e00            	ld	a,1
   117   00029c cd0000          	call	printf
   117   00029f 210000          	ld	hl,i_1+36
   117   0002a2 e3              	ex	(sp),hl
   117   0002a3 cd0000          	call	_printcentered
   117   0002a6 c1              	pop	bc
   117   0002a7 210000          	ld	hl,i_1+158
   117   0002aa e5              	push	hl
   117   0002ab cd0000          	call	puts
   117   0002ae 210000          	ld	hl,i_1+549
   117   0002b1 e3              	ex	(sp),hl
   117   0002b2 cd0000          	call	_printcentered
   117   0002b5 c1              	pop	bc
   117   0002b6 210000          	ld	hl,i_1+279
   117   0002b9 e5              	push	hl
   117   0002ba cd0000          	call	puts
   117   0002bd c1              	pop	bc
   117   0002be 210000          	ld	hl,i_1+507
   117   0002c1 e5              	push	hl
   117   0002c2 3e00            	ld	a,1
   117   0002c4 cd0000          	call	printf
   117   0002c7 c1              	pop	bc
   117   0002c8 210000          	ld	hl,i_1+528
   117   0002cb e5              	push	hl
   117   0002cc 3e00            	ld	a,1
   117   0002ce cd0000          	call	printf
   117   0002d1 c1              	pop	bc
   117   0002d2 210000          	ld	hl,i_1+571
   117   0002d5 e5              	push	hl
   117   0002d6 3e00            	ld	a,1
   117   0002d8 cd0000          	call	printf
   117   0002db c1              	pop	bc
   117   0002dc 210000          	ld	hl,i_1+592
   117   0002df e5              	push	hl
   117   0002e0 3e00            	ld	a,1
   117   0002e2 cd0000          	call	printf
   117   0002e5 c1              	pop	bc
   117   0002e6 210000          	ld	hl,i_1+410
   117   0002e9 e5              	push	hl
   117   0002ea 3e00            	ld	a,1
   117   0002ec cd0000          	call	printf
   117   0002ef c1              	pop	bc
   117   0002f0 210000          	ld	hl,22	;const
   117   0002f3 39              	add	hl,sp
   117   0002f4 e5              	push	hl
   117   0002f5 cd0000          	call	_getint
   117   0002f8 d1              	pop	de
   117   0002f9 cd0000          	call	l_pint
   117   0002fc 210000          	ld	hl,i_1+423
   117   0002ff e5              	push	hl
   117   000300 3e00            	ld	a,1
   117   000302 cd0000          	call	printf
   117   000305 c1              	pop	bc
   117   000306 210000          	ld	hl,24	;const
   117   000309 39              	add	hl,sp
   117   00030a e5              	push	hl
   117   00030b cd0000          	call	_getint
   117   00030e d1              	pop	de
   117   00030f cd0000          	call	l_pint
   117   000312 210000          	ld	hl,i_1+436
   117   000315 e5              	push	hl
   117   000316 3e00            	ld	a,1
   117   000318 cd0000          	call	printf
   117   00031b c1              	pop	bc
   117   00031c 210000          	ld	hl,0	;const
   117   00031f 39              	add	hl,sp
   117   000320 e5              	push	hl
   117   000321 cd0000          	call	_getstring
   117   000324 c1              	pop	bc
   117   000325 210000          	ld	hl,26	;const
   117   000328 39              	add	hl,sp
   117   000329 e5              	push	hl
   117   00032a 210000          	ld	hl,2	;const
   117   00032d 39              	add	hl,sp
   117   00032e d1              	pop	de
   117   00032f 7e              	ld	a,(hl)
   117   000330 12              	ld	(de),a
   117   000331 210000          	ld	hl,i_1+449
   117   000334 e5              	push	hl
   117   000335 3e00            	ld	a,1
   117   000337 cd0000          	call	printf
   117   00033a c1              	pop	bc
   117   00033b 210000          	ld	hl,27	;const
   117   00033e 39              	add	hl,sp
   117   00033f e5              	push	hl
   117   000340 cd0000          	call	_getbyte
   117   000343 7d              	ld	a,l
   117   000344 d1              	pop	de
   117   000345 12              	ld	(de),a
   117   000346 210000          	ld	hl,20	;const
   117   000349 e5              	push	hl
   117   00034a cd0000          	call	_esp0_outbyte
   117   00034d c1              	pop	bc
   117   00034e 210000          	ld	hl,22	;const
   117   000351 39              	add	hl,sp
   117   000352 e5              	push	hl
   117   000353 210000          	ld	hl,6	;const
   117   000356 e5              	push	hl
   117   000357 cd0000          	call	_esp0_outstruct
   117   00035a c1              	pop	bc
   117   00035b c1              	pop	bc
   117   00035c 210000          	ld	hl,28	;const
   117   00035f 39              	add	hl,sp
   117   000360 f9              	ld	sp,hl
   117   000361 c9              	ret
   117                          
   117                          
   117                          	C_LINE	141,"testesp.c::draw_char_test::0::6"
testesp.c::draw_char_test::0::6:
   141                          
   141                          ; Function draw_ellipse_test flags 0x00000200 __smallc
   141                          ; int draw_ellipse_test()
   141                          	C_LINE	142,"testesp.c::draw_ellipse_test::0::6"
testesp.c::draw_ellipse_test::0::6:
   142                          ._draw_ellipse_test
   142   000362 c5              	push	bc
   142   000363 c5              	push	bc
   142   000364 c5              	push	bc
   142   000365 c5              	push	bc
   142   000366 210000          	ld	hl,i_1+24
   142   000369 e5              	push	hl
   142   00036a 3e00            	ld	a,1
   142   00036c cd0000          	call	printf
   142   00036f 210000          	ld	hl,i_1+36
   142   000372 e3              	ex	(sp),hl
   142   000373 cd0000          	call	_printcentered
   142   000376 c1              	pop	bc
   142   000377 210000          	ld	hl,i_1+158
   142   00037a e5              	push	hl
   142   00037b cd0000          	call	puts
   142   00037e 210000          	ld	hl,i_1+613
   142   000381 e3              	ex	(sp),hl
   142   000382 cd0000          	call	_printcentered
   142   000385 c1              	pop	bc
   142   000386 210000          	ld	hl,i_1+279
   142   000389 e5              	push	hl
   142   00038a cd0000          	call	puts
   142   00038d c1              	pop	bc
   142   00038e 210000          	ld	hl,i_1+284
   142   000391 e5              	push	hl
   142   000392 3e00            	ld	a,1
   142   000394 cd0000          	call	printf
   142   000397 c1              	pop	bc
   142   000398 210000          	ld	hl,i_1+305
   142   00039b e5              	push	hl
   142   00039c 3e00            	ld	a,1
   142   00039e cd0000          	call	printf
   142   0003a1 c1              	pop	bc
   142   0003a2 210000          	ld	hl,i_1+633
   142   0003a5 e5              	push	hl
   142   0003a6 3e00            	ld	a,1
   142   0003a8 cd0000          	call	printf
   142   0003ab c1              	pop	bc
   142   0003ac 210000          	ld	hl,i_1+654
   142   0003af e5              	push	hl
   142   0003b0 3e00            	ld	a,1
   142   0003b2 cd0000          	call	printf
   142   0003b5 c1              	pop	bc
   142   0003b6 210000          	ld	hl,i_1+410
   142   0003b9 e5              	push	hl
   142   0003ba 3e00            	ld	a,1
   142   0003bc cd0000          	call	printf
   142   0003bf c1              	pop	bc
   142   0003c0 210000          	ld	hl,0	;const
   142   0003c3 39              	add	hl,sp
   142   0003c4 e5              	push	hl
   142   0003c5 cd0000          	call	_getint
   142   0003c8 d1              	pop	de
   142   0003c9 cd0000          	call	l_pint
   142   0003cc 210000          	ld	hl,i_1+423
   142   0003cf e5              	push	hl
   142   0003d0 3e00            	ld	a,1
   142   0003d2 cd0000          	call	printf
   142   0003d5 c1              	pop	bc
   142   0003d6 210000          	ld	hl,2	;const
   142   0003d9 39              	add	hl,sp
   142   0003da e5              	push	hl
   142   0003db cd0000          	call	_getint
   142   0003de d1              	pop	de
   142   0003df cd0000          	call	l_pint
   142   0003e2 210000          	ld	hl,i_1+436
   142   0003e5 e5              	push	hl
   142   0003e6 3e00            	ld	a,1
   142   0003e8 cd0000          	call	printf
   142   0003eb c1              	pop	bc
   142   0003ec 210000          	ld	hl,4	;const
   142   0003ef 39              	add	hl,sp
   142   0003f0 e5              	push	hl
   142   0003f1 cd0000          	call	_getint
   142   0003f4 d1              	pop	de
   142   0003f5 cd0000          	call	l_pint
   142   0003f8 210000          	ld	hl,i_1+449
   142   0003fb e5              	push	hl
   142   0003fc 3e00            	ld	a,1
   142   0003fe cd0000          	call	printf
   142   000401 c1              	pop	bc
   142   000402 210000          	ld	hl,6	;const
   142   000405 39              	add	hl,sp
   142   000406 e5              	push	hl
   142   000407 cd0000          	call	_getint
   142   00040a d1              	pop	de
   142   00040b cd0000          	call	l_pint
   142   00040e 210000          	ld	hl,21	;const
   142   000411 e5              	push	hl
   142   000412 cd0000          	call	_esp0_outbyte
   142   000415 c1              	pop	bc
   142   000416 210000          	ld	hl,0	;const
   142   000419 39              	add	hl,sp
   142   00041a e5              	push	hl
   142   00041b 210000          	ld	hl,8	;const
   142   00041e e5              	push	hl
   142   00041f cd0000          	call	_esp0_outstruct
   142   000422 c1              	pop	bc
   142   000423 c1              	pop	bc
   142   000424 c1              	pop	bc
   142   000425 c1              	pop	bc
   142   000426 c1              	pop	bc
   142   000427 c1              	pop	bc
   142   000428 c9              	ret
   142                          
   142                          
   142                          	C_LINE	164,"testesp.c::draw_ellipse_test::0::7"
testesp.c::draw_ellipse_test::0::7:
   164                          
   164                          ; Function draw_glyph_test flags 0x00000200 __smallc
   164                          ; int draw_glyph_test()
   164                          	C_LINE	165,"testesp.c::draw_glyph_test::0::7"
testesp.c::draw_glyph_test::0::7:
   165                          ._draw_glyph_test
   165   000429 210000          	ld	hl,65524	;const
   165   00042c 39              	add	hl,sp
   165   00042d f9              	ld	sp,hl
   165   00042e 210000          	ld	hl,i_1+24
   165   000431 e5              	push	hl
   165   000432 3e00            	ld	a,1
   165   000434 cd0000          	call	printf
   165   000437 210000          	ld	hl,i_1+36
   165   00043a e3              	ex	(sp),hl
   165   00043b cd0000          	call	_printcentered
   165   00043e c1              	pop	bc
   165   00043f 210000          	ld	hl,i_1+158
   165   000442 e5              	push	hl
   165   000443 cd0000          	call	puts
   165   000446 210000          	ld	hl,i_1+675
   165   000449 e3              	ex	(sp),hl
   165   00044a cd0000          	call	_printcentered
   165   00044d c1              	pop	bc
   165   00044e 210000          	ld	hl,i_1+279
   165   000451 e5              	push	hl
   165   000452 cd0000          	call	puts
   165   000455 c1              	pop	bc
   165   000456 210000          	ld	hl,i_1+507
   165   000459 e5              	push	hl
   165   00045a 3e00            	ld	a,1
   165   00045c cd0000          	call	printf
   165   00045f c1              	pop	bc
   165   000460 210000          	ld	hl,i_1+528
   165   000463 e5              	push	hl
   165   000464 3e00            	ld	a,1
   165   000466 cd0000          	call	printf
   165   000469 c1              	pop	bc
   165   00046a 210000          	ld	hl,i_1+410
   165   00046d e5              	push	hl
   165   00046e 3e00            	ld	a,1
   165   000470 cd0000          	call	printf
   165   000473 c1              	pop	bc
   165   000474 210000          	ld	hl,0	;const
   165   000477 39              	add	hl,sp
   165   000478 e5              	push	hl
   165   000479 cd0000          	call	_getint
   165   00047c d1              	pop	de
   165   00047d cd0000          	call	l_pint
   165   000480 210000          	ld	hl,i_1+423
   165   000483 e5              	push	hl
   165   000484 3e00            	ld	a,1
   165   000486 cd0000          	call	printf
   165   000489 c1              	pop	bc
   165   00048a 210000          	ld	hl,2	;const
   165   00048d 39              	add	hl,sp
   165   00048e e5              	push	hl
   165   00048f cd0000          	call	_getint
   165   000492 d1              	pop	de
   165   000493 cd0000          	call	l_pint
   165   000496 210000          	ld	hl,4	;const
   165   000499 39              	add	hl,sp
   165   00049a 3600            	ld	(hl),16
   165   00049c 23              	inc	hl
   165   00049d 3600            	ld	(hl),0
   165   00049f 210000          	ld	hl,6	;const
   165   0004a2 39              	add	hl,sp
   165   0004a3 3600            	ld	(hl),7
   165   0004a5 23              	inc	hl
   165   0004a6 3600            	ld	(hl),0
   165   0004a8 210000          	ld	hl,8	;const
   165   0004ab 39              	add	hl,sp
   165   0004ac af              	xor	a
   165   0004ad 77              	ld	(hl),a
   165   0004ae 23              	inc	hl
   165   0004af 77              	ld	(hl),a
   165   0004b0 210000          	ld	hl,10	;const
   165   0004b3 39              	add	hl,sp
   165   0004b4 3600            	ld	(hl),14
   165   0004b6 23              	inc	hl
   165   0004b7 3600            	ld	(hl),0
   165   0004b9 210000          	ld	hl,22	;const
   165   0004bc e5              	push	hl
   165   0004bd cd0000          	call	_esp0_outbyte
   165   0004c0 c1              	pop	bc
   165   0004c1 210000          	ld	hl,0	;const
   165   0004c4 39              	add	hl,sp
   165   0004c5 e5              	push	hl
   165   0004c6 210000          	ld	hl,12	;const
   165   0004c9 e5              	push	hl
   165   0004ca cd0000          	call	_esp0_outstruct
   165   0004cd c1              	pop	bc
   165   0004ce c1              	pop	bc
   165   0004cf 210000          	ld	hl,_GLYPH_TEST
   165   0004d2 e5              	push	hl
   165   0004d3 210000          	ld	hl,14	;const
   165   0004d6 e5              	push	hl
   165   0004d7 cd0000          	call	_esp0_outstruct
   165   0004da c1              	pop	bc
   165   0004db c1              	pop	bc
   165   0004dc 210000          	ld	hl,12	;const
   165   0004df 39              	add	hl,sp
   165   0004e0 f9              	ld	sp,hl
   165   0004e1 c9              	ret
   165                          
   165                          
   165                          	C_LINE	189,"testesp.c::draw_glyph_test::0::8"
testesp.c::draw_glyph_test::0::8:
   189                          
   189                          ; Function draw_line_test flags 0x00000200 __smallc
   189                          ; int draw_line_test()
   189                          	C_LINE	190,"testesp.c::draw_line_test::0::8"
testesp.c::draw_line_test::0::8:
   190                          ._draw_line_test
   190   0004e2 c5              	push	bc
   190   0004e3 c5              	push	bc
   190   0004e4 c5              	push	bc
   190   0004e5 c5              	push	bc
   190   0004e6 210000          	ld	hl,i_1+24
   190   0004e9 e5              	push	hl
   190   0004ea 3e00            	ld	a,1
   190   0004ec cd0000          	call	printf
   190   0004ef 210000          	ld	hl,i_1+36
   190   0004f2 e3              	ex	(sp),hl
   190   0004f3 cd0000          	call	_printcentered
   190   0004f6 c1              	pop	bc
   190   0004f7 210000          	ld	hl,i_1+158
   190   0004fa e5              	push	hl
   190   0004fb cd0000          	call	puts
   190   0004fe 210000          	ld	hl,i_1+693
   190   000501 e3              	ex	(sp),hl
   190   000502 cd0000          	call	_printcentered
   190   000505 c1              	pop	bc
   190   000506 210000          	ld	hl,i_1+279
   190   000509 e5              	push	hl
   190   00050a cd0000          	call	puts
   190   00050d c1              	pop	bc
   190   00050e 210000          	ld	hl,i_1+710
   190   000511 e5              	push	hl
   190   000512 3e00            	ld	a,1
   190   000514 cd0000          	call	printf
   190   000517 c1              	pop	bc
   190   000518 210000          	ld	hl,i_1+731
   190   00051b e5              	push	hl
   190   00051c 3e00            	ld	a,1
   190   00051e cd0000          	call	printf
   190   000521 c1              	pop	bc
   190   000522 210000          	ld	hl,i_1+752
   190   000525 e5              	push	hl
   190   000526 3e00            	ld	a,1
   190   000528 cd0000          	call	printf
   190   00052b c1              	pop	bc
   190   00052c 210000          	ld	hl,i_1+773
   190   00052f e5              	push	hl
   190   000530 3e00            	ld	a,1
   190   000532 cd0000          	call	printf
   190   000535 c1              	pop	bc
   190   000536 210000          	ld	hl,i_1+410
   190   000539 e5              	push	hl
   190   00053a 3e00            	ld	a,1
   190   00053c cd0000          	call	printf
   190   00053f c1              	pop	bc
   190   000540 210000          	ld	hl,0	;const
   190   000543 39              	add	hl,sp
   190   000544 e5              	push	hl
   190   000545 cd0000          	call	_getint
   190   000548 d1              	pop	de
   190   000549 cd0000          	call	l_pint
   190   00054c 210000          	ld	hl,i_1+423
   190   00054f e5              	push	hl
   190   000550 3e00            	ld	a,1
   190   000552 cd0000          	call	printf
   190   000555 c1              	pop	bc
   190   000556 210000          	ld	hl,2	;const
   190   000559 39              	add	hl,sp
   190   00055a e5              	push	hl
   190   00055b cd0000          	call	_getint
   190   00055e d1              	pop	de
   190   00055f cd0000          	call	l_pint
   190   000562 210000          	ld	hl,i_1+436
   190   000565 e5              	push	hl
   190   000566 3e00            	ld	a,1
   190   000568 cd0000          	call	printf
   190   00056b c1              	pop	bc
   190   00056c 210000          	ld	hl,4	;const
   190   00056f 39              	add	hl,sp
   190   000570 e5              	push	hl
   190   000571 cd0000          	call	_getint
   190   000574 d1              	pop	de
   190   000575 cd0000          	call	l_pint
   190   000578 210000          	ld	hl,i_1+449
   190   00057b e5              	push	hl
   190   00057c 3e00            	ld	a,1
   190   00057e cd0000          	call	printf
   190   000581 c1              	pop	bc
   190   000582 210000          	ld	hl,6	;const
   190   000585 39              	add	hl,sp
   190   000586 e5              	push	hl
   190   000587 cd0000          	call	_getint
   190   00058a d1              	pop	de
   190   00058b cd0000          	call	l_pint
   190   00058e 210000          	ld	hl,23	;const
   190   000591 e5              	push	hl
   190   000592 cd0000          	call	_esp0_outbyte
   190   000595 c1              	pop	bc
   190   000596 210000          	ld	hl,0	;const
   190   000599 39              	add	hl,sp
   190   00059a e5              	push	hl
   190   00059b 210000          	ld	hl,8	;const
   190   00059e e5              	push	hl
   190   00059f cd0000          	call	_esp0_outstruct
   190   0005a2 c1              	pop	bc
   190   0005a3 c1              	pop	bc
   190   0005a4 c1              	pop	bc
   190   0005a5 c1              	pop	bc
   190   0005a6 c1              	pop	bc
   190   0005a7 c1              	pop	bc
   190   0005a8 c9              	ret
   190                          
   190                          
   190                          	C_LINE	212,"testesp.c::draw_line_test::0::9"
testesp.c::draw_line_test::0::9:
   212                          
   212                          ; Function draw_rectangle_test flags 0x00000200 __smallc
   212                          ; int draw_rectangle_test()
   212                          	C_LINE	213,"testesp.c::draw_rectangle_test::0::9"
testesp.c::draw_rectangle_test::0::9:
   213                          ._draw_rectangle_test
   213   0005a9 c5              	push	bc
   213   0005aa c5              	push	bc
   213   0005ab c5              	push	bc
   213   0005ac c5              	push	bc
   213   0005ad 210000          	ld	hl,i_1+24
   213   0005b0 e5              	push	hl
   213   0005b1 3e00            	ld	a,1
   213   0005b3 cd0000          	call	printf
   213   0005b6 210000          	ld	hl,i_1+36
   213   0005b9 e3              	ex	(sp),hl
   213   0005ba cd0000          	call	_printcentered
   213   0005bd c1              	pop	bc
   213   0005be 210000          	ld	hl,i_1+158
   213   0005c1 e5              	push	hl
   213   0005c2 cd0000          	call	puts
   213   0005c5 210000          	ld	hl,i_1+794
   213   0005c8 e3              	ex	(sp),hl
   213   0005c9 cd0000          	call	_printcentered
   213   0005cc c1              	pop	bc
   213   0005cd 210000          	ld	hl,i_1+279
   213   0005d0 e5              	push	hl
   213   0005d1 cd0000          	call	puts
   213   0005d4 c1              	pop	bc
   213   0005d5 210000          	ld	hl,i_1+284
   213   0005d8 e5              	push	hl
   213   0005d9 3e00            	ld	a,1
   213   0005db cd0000          	call	printf
   213   0005de c1              	pop	bc
   213   0005df 210000          	ld	hl,i_1+305
   213   0005e2 e5              	push	hl
   213   0005e3 3e00            	ld	a,1
   213   0005e5 cd0000          	call	printf
   213   0005e8 c1              	pop	bc
   213   0005e9 210000          	ld	hl,i_1+326
   213   0005ec e5              	push	hl
   213   0005ed 3e00            	ld	a,1
   213   0005ef cd0000          	call	printf
   213   0005f2 c1              	pop	bc
   213   0005f3 210000          	ld	hl,i_1+347
   213   0005f6 e5              	push	hl
   213   0005f7 3e00            	ld	a,1
   213   0005f9 cd0000          	call	printf
   213   0005fc c1              	pop	bc
   213   0005fd 210000          	ld	hl,i_1+410
   213   000600 e5              	push	hl
   213   000601 3e00            	ld	a,1
   213   000603 cd0000          	call	printf
   213   000606 c1              	pop	bc
   213   000607 210000          	ld	hl,0	;const
   213   00060a 39              	add	hl,sp
   213   00060b e5              	push	hl
   213   00060c cd0000          	call	_getint
   213   00060f d1              	pop	de
   213   000610 cd0000          	call	l_pint
   213   000613 210000          	ld	hl,i_1+423
   213   000616 e5              	push	hl
   213   000617 3e00            	ld	a,1
   213   000619 cd0000          	call	printf
   213   00061c c1              	pop	bc
   213   00061d 210000          	ld	hl,2	;const
   213   000620 39              	add	hl,sp
   213   000621 e5              	push	hl
   213   000622 cd0000          	call	_getint
   213   000625 d1              	pop	de
   213   000626 cd0000          	call	l_pint
   213   000629 210000          	ld	hl,i_1+436
   213   00062c e5              	push	hl
   213   00062d 3e00            	ld	a,1
   213   00062f cd0000          	call	printf
   213   000632 c1              	pop	bc
   213   000633 210000          	ld	hl,4	;const
   213   000636 39              	add	hl,sp
   213   000637 e5              	push	hl
   213   000638 cd0000          	call	_getint
   213   00063b d1              	pop	de
   213   00063c cd0000          	call	l_pint
   213   00063f 210000          	ld	hl,i_1+449
   213   000642 e5              	push	hl
   213   000643 3e00            	ld	a,1
   213   000645 cd0000          	call	printf
   213   000648 c1              	pop	bc
   213   000649 210000          	ld	hl,6	;const
   213   00064c 39              	add	hl,sp
   213   00064d e5              	push	hl
   213   00064e cd0000          	call	_getint
   213   000651 d1              	pop	de
   213   000652 cd0000          	call	l_pint
   213   000655 210000          	ld	hl,24	;const
   213   000658 e5              	push	hl
   213   000659 cd0000          	call	_esp0_outbyte
   213   00065c c1              	pop	bc
   213   00065d 210000          	ld	hl,0	;const
   213   000660 39              	add	hl,sp
   213   000661 e5              	push	hl
   213   000662 210000          	ld	hl,8	;const
   213   000665 e5              	push	hl
   213   000666 cd0000          	call	_esp0_outstruct
   213   000669 c1              	pop	bc
   213   00066a c1              	pop	bc
   213   00066b c1              	pop	bc
   213   00066c c1              	pop	bc
   213   00066d c1              	pop	bc
   213   00066e c1              	pop	bc
   213   00066f c9              	ret
   213                          
   213                          
   213                          	C_LINE	235,"testesp.c::draw_rectangle_test::0::10"
testesp.c::draw_rectangle_test::0::10:
   235                          
   235                          ; Function fill_ellipse_test flags 0x00000200 __smallc
   235                          ; int fill_ellipse_test()
   235                          	C_LINE	236,"testesp.c::fill_ellipse_test::0::10"
testesp.c::fill_ellipse_test::0::10:
   236                          ._fill_ellipse_test
   236   000670 c5              	push	bc
   236   000671 c5              	push	bc
   236   000672 c5              	push	bc
   236   000673 c5              	push	bc
   236   000674 210000          	ld	hl,i_1+24
   236   000677 e5              	push	hl
   236   000678 3e00            	ld	a,1
   236   00067a cd0000          	call	printf
   236   00067d 210000          	ld	hl,i_1+36
   236   000680 e3              	ex	(sp),hl
   236   000681 cd0000          	call	_printcentered
   236   000684 c1              	pop	bc
   236   000685 210000          	ld	hl,i_1+158
   236   000688 e5              	push	hl
   236   000689 cd0000          	call	puts
   236   00068c 210000          	ld	hl,i_1+816
   236   00068f e3              	ex	(sp),hl
   236   000690 cd0000          	call	_printcentered
   236   000693 c1              	pop	bc
   236   000694 210000          	ld	hl,i_1+279
   236   000697 e5              	push	hl
   236   000698 cd0000          	call	puts
   236   00069b c1              	pop	bc
   236   00069c 210000          	ld	hl,i_1+284
   236   00069f e5              	push	hl
   236   0006a0 3e00            	ld	a,1
   236   0006a2 cd0000          	call	printf
   236   0006a5 c1              	pop	bc
   236   0006a6 210000          	ld	hl,i_1+305
   236   0006a9 e5              	push	hl
   236   0006aa 3e00            	ld	a,1
   236   0006ac cd0000          	call	printf
   236   0006af c1              	pop	bc
   236   0006b0 210000          	ld	hl,i_1+633
   236   0006b3 e5              	push	hl
   236   0006b4 3e00            	ld	a,1
   236   0006b6 cd0000          	call	printf
   236   0006b9 c1              	pop	bc
   236   0006ba 210000          	ld	hl,i_1+654
   236   0006bd e5              	push	hl
   236   0006be 3e00            	ld	a,1
   236   0006c0 cd0000          	call	printf
   236   0006c3 c1              	pop	bc
   236   0006c4 210000          	ld	hl,i_1+410
   236   0006c7 e5              	push	hl
   236   0006c8 3e00            	ld	a,1
   236   0006ca cd0000          	call	printf
   236   0006cd c1              	pop	bc
   236   0006ce 210000          	ld	hl,0	;const
   236   0006d1 39              	add	hl,sp
   236   0006d2 e5              	push	hl
   236   0006d3 cd0000          	call	_getint
   236   0006d6 d1              	pop	de
   236   0006d7 cd0000          	call	l_pint
   236   0006da 210000          	ld	hl,i_1+423
   236   0006dd e5              	push	hl
   236   0006de 3e00            	ld	a,1
   236   0006e0 cd0000          	call	printf
   236   0006e3 c1              	pop	bc
   236   0006e4 210000          	ld	hl,2	;const
   236   0006e7 39              	add	hl,sp
   236   0006e8 e5              	push	hl
   236   0006e9 cd0000          	call	_getint
   236   0006ec d1              	pop	de
   236   0006ed cd0000          	call	l_pint
   236   0006f0 210000          	ld	hl,i_1+436
   236   0006f3 e5              	push	hl
   236   0006f4 3e00            	ld	a,1
   236   0006f6 cd0000          	call	printf
   236   0006f9 c1              	pop	bc
   236   0006fa 210000          	ld	hl,4	;const
   236   0006fd 39              	add	hl,sp
   236   0006fe e5              	push	hl
   236   0006ff cd0000          	call	_getint
   236   000702 d1              	pop	de
   236   000703 cd0000          	call	l_pint
   236   000706 210000          	ld	hl,i_1+449
   236   000709 e5              	push	hl
   236   00070a 3e00            	ld	a,1
   236   00070c cd0000          	call	printf
   236   00070f c1              	pop	bc
   236   000710 210000          	ld	hl,6	;const
   236   000713 39              	add	hl,sp
   236   000714 e5              	push	hl
   236   000715 cd0000          	call	_getint
   236   000718 d1              	pop	de
   236   000719 cd0000          	call	l_pint
   236   00071c 210000          	ld	hl,25	;const
   236   00071f e5              	push	hl
   236   000720 cd0000          	call	_esp0_outbyte
   236   000723 c1              	pop	bc
   236   000724 210000          	ld	hl,0	;const
   236   000727 39              	add	hl,sp
   236   000728 e5              	push	hl
   236   000729 210000          	ld	hl,8	;const
   236   00072c e5              	push	hl
   236   00072d cd0000          	call	_esp0_outstruct
   236   000730 c1              	pop	bc
   236   000731 c1              	pop	bc
   236   000732 c1              	pop	bc
   236   000733 c1              	pop	bc
   236   000734 c1              	pop	bc
   236   000735 c1              	pop	bc
   236   000736 c9              	ret
   236                          
   236                          
   236                          	C_LINE	258,"testesp.c::fill_ellipse_test::0::11"
testesp.c::fill_ellipse_test::0::11:
   258                          
   258                          ; Function fill_rectangle_test flags 0x00000200 __smallc
   258                          ; int fill_rectangle_test()
   258                          	C_LINE	259,"testesp.c::fill_rectangle_test::0::11"
testesp.c::fill_rectangle_test::0::11:
   259                          ._fill_rectangle_test
   259   000737 c5              	push	bc
   259   000738 c5              	push	bc
   259   000739 c5              	push	bc
   259   00073a c5              	push	bc
   259   00073b 210000          	ld	hl,i_1+24
   259   00073e e5              	push	hl
   259   00073f 3e00            	ld	a,1
   259   000741 cd0000          	call	printf
   259   000744 210000          	ld	hl,i_1+36
   259   000747 e3              	ex	(sp),hl
   259   000748 cd0000          	call	_printcentered
   259   00074b c1              	pop	bc
   259   00074c 210000          	ld	hl,i_1+158
   259   00074f e5              	push	hl
   259   000750 cd0000          	call	puts
   259   000753 210000          	ld	hl,i_1+836
   259   000756 e3              	ex	(sp),hl
   259   000757 cd0000          	call	_printcentered
   259   00075a c1              	pop	bc
   259   00075b 210000          	ld	hl,i_1+279
   259   00075e e5              	push	hl
   259   00075f cd0000          	call	puts
   259   000762 c1              	pop	bc
   259   000763 210000          	ld	hl,i_1+284
   259   000766 e5              	push	hl
   259   000767 3e00            	ld	a,1
   259   000769 cd0000          	call	printf
   259   00076c c1              	pop	bc
   259   00076d 210000          	ld	hl,i_1+305
   259   000770 e5              	push	hl
   259   000771 3e00            	ld	a,1
   259   000773 cd0000          	call	printf
   259   000776 c1              	pop	bc
   259   000777 210000          	ld	hl,i_1+326
   259   00077a e5              	push	hl
   259   00077b 3e00            	ld	a,1
   259   00077d cd0000          	call	printf
   259   000780 c1              	pop	bc
   259   000781 210000          	ld	hl,i_1+347
   259   000784 e5              	push	hl
   259   000785 3e00            	ld	a,1
   259   000787 cd0000          	call	printf
   259   00078a c1              	pop	bc
   259   00078b 210000          	ld	hl,i_1+410
   259   00078e e5              	push	hl
   259   00078f 3e00            	ld	a,1
   259   000791 cd0000          	call	printf
   259   000794 c1              	pop	bc
   259   000795 210000          	ld	hl,0	;const
   259   000798 39              	add	hl,sp
   259   000799 e5              	push	hl
   259   00079a cd0000          	call	_getint
   259   00079d d1              	pop	de
   259   00079e cd0000          	call	l_pint
   259   0007a1 210000          	ld	hl,i_1+423
   259   0007a4 e5              	push	hl
   259   0007a5 3e00            	ld	a,1
   259   0007a7 cd0000          	call	printf
   259   0007aa c1              	pop	bc
   259   0007ab 210000          	ld	hl,2	;const
   259   0007ae 39              	add	hl,sp
   259   0007af e5              	push	hl
   259   0007b0 cd0000          	call	_getint
   259   0007b3 d1              	pop	de
   259   0007b4 cd0000          	call	l_pint
   259   0007b7 210000          	ld	hl,i_1+436
   259   0007ba e5              	push	hl
   259   0007bb 3e00            	ld	a,1
   259   0007bd cd0000          	call	printf
   259   0007c0 c1              	pop	bc
   259   0007c1 210000          	ld	hl,4	;const
   259   0007c4 39              	add	hl,sp
   259   0007c5 e5              	push	hl
   259   0007c6 cd0000          	call	_getint
   259   0007c9 d1              	pop	de
   259   0007ca cd0000          	call	l_pint
   259   0007cd 210000          	ld	hl,i_1+449
   259   0007d0 e5              	push	hl
   259   0007d1 3e00            	ld	a,1
   259   0007d3 cd0000          	call	printf
   259   0007d6 c1              	pop	bc
   259   0007d7 210000          	ld	hl,6	;const
   259   0007da 39              	add	hl,sp
   259   0007db e5              	push	hl
   259   0007dc cd0000          	call	_getint
   259   0007df d1              	pop	de
   259   0007e0 cd0000          	call	l_pint
   259   0007e3 210000          	ld	hl,26	;const
   259   0007e6 e5              	push	hl
   259   0007e7 cd0000          	call	_esp0_outbyte
   259   0007ea c1              	pop	bc
   259   0007eb 210000          	ld	hl,0	;const
   259   0007ee 39              	add	hl,sp
   259   0007ef e5              	push	hl
   259   0007f0 210000          	ld	hl,8	;const
   259   0007f3 e5              	push	hl
   259   0007f4 cd0000          	call	_esp0_outstruct
   259   0007f7 c1              	pop	bc
   259   0007f8 c1              	pop	bc
   259   0007f9 c1              	pop	bc
   259   0007fa c1              	pop	bc
   259   0007fb c1              	pop	bc
   259   0007fc c1              	pop	bc
   259   0007fd c9              	ret
   259                          
   259                          
   259                          	C_LINE	281,"testesp.c::fill_rectangle_test::0::12"
testesp.c::fill_rectangle_test::0::12:
   281                          
   281                          ; Function get_pixel_test flags 0x00000200 __smallc
   281                          ; int get_pixel_test()
   281                          	C_LINE	282,"testesp.c::get_pixel_test::0::12"
testesp.c::get_pixel_test::0::12:
   282                          ._get_pixel_test
   282   0007fe c5              	push	bc
   282   0007ff c5              	push	bc
   282   000800 210000          	ld	hl,0	;const
   282   000803 e5              	push	hl
   282   000804 110000          	ld	de,0	;const
   282   000807 d5              	push	de
   282   000808 e5              	push	hl
   282   000809 210000          	ld	hl,1	;const
   282   00080c e5              	push	hl
   282   00080d 210000          	ld	hl,i_1+24
   282   000810 e5              	push	hl
   282   000811 3e00            	ld	a,1
   282   000813 cd0000          	call	printf
   282   000816 210000          	ld	hl,i_1+36
   282   000819 e3              	ex	(sp),hl
   282   00081a cd0000          	call	_printcentered
   282   00081d c1              	pop	bc
   282   00081e 210000          	ld	hl,i_1+158
   282   000821 e5              	push	hl
   282   000822 cd0000          	call	puts
   282   000825 210000          	ld	hl,i_1+858
   282   000828 e3              	ex	(sp),hl
   282   000829 cd0000          	call	_printcentered
   282   00082c c1              	pop	bc
   282   00082d 210000          	ld	hl,i_1+279
   282   000830 e5              	push	hl
   282   000831 cd0000          	call	puts
   282   000834 210000          	ld	hl,i_1+877
   282   000837 e3              	ex	(sp),hl
   282   000838 cd0000          	call	_printcentered
   282   00083b c1              	pop	bc
   282                          .i_4
   282   00083c e1              	pop	hl
   282   00083d e5              	push	hl
   282   00083e 7c              	ld	a,h
   282   00083f b5              	or	l
   282   000840 ca0000          	jp	z,i_5	;
   282   000843 210000          	ld	hl,i_1+899
   282   000846 e5              	push	hl
   282   000847 3e00            	ld	a,1
   282   000849 cd0000          	call	printf
   282   00084c c1              	pop	bc
   282   00084d 210000          	ld	hl,i_1+931
   282   000850 e5              	push	hl
   282   000851 3e00            	ld	a,1
   282   000853 cd0000          	call	printf
   282   000856 c1              	pop	bc
   282   000857 210000          	ld	hl,i_1+410
   282   00085a e5              	push	hl
   282   00085b 3e00            	ld	a,1
   282   00085d cd0000          	call	printf
   282   000860 c1              	pop	bc
   282   000861 210000          	ld	hl,8	;const
   282   000864 39              	add	hl,sp
   282   000865 e5              	push	hl
   282   000866 cd0000          	call	_getint
   282   000869 d1              	pop	de
   282   00086a cd0000          	call	l_pint
   282   00086d 210000          	ld	hl,i_1+423
   282   000870 e5              	push	hl
   282   000871 3e00            	ld	a,1
   282   000873 cd0000          	call	printf
   282   000876 c1              	pop	bc
   282   000877 210000          	ld	hl,10	;const
   282   00087a 39              	add	hl,sp
   282   00087b e5              	push	hl
   282   00087c cd0000          	call	_getint
   282   00087f d1              	pop	de
   282   000880 cd0000          	call	l_pint
   282   000883 210000          	ld	hl,8	;const
   282   000886 39              	add	hl,sp
   282   000887 cd0000          	call	l_gint	;
   282   00088a 7c              	ld	a,h
   282   00088b b5              	or	l
   282   00088c 2000            	jr	nz,ASMPC+3
   282   00088e 37              	scf
   282   00088f d20000          	jp	nc,i_7	;
   282   000892 210000          	ld	hl,10	;const
   282   000895 39              	add	hl,sp
   282   000896 cd0000          	call	l_gint	;
   282   000899 7c              	ld	a,h
   282   00089a b5              	or	l
   282   00089b 2000            	jr	nz,ASMPC+3
   282   00089d 37              	scf
   282   00089e d20000          	jp	nc,i_7	;
   282                          .i_8_i_7
   282   0008a1 210000          	ld	hl,0	;const
   282   0008a4 c1              	pop	bc
   282   0008a5 e5              	push	hl
   282                          .i_6
   282   0008a6 210000          	ld	hl,27	;const
   282   0008a9 e5              	push	hl
   282   0008aa cd0000          	call	_esp0_outbyte
   282   0008ad c1              	pop	bc
   282   0008ae 210000          	ld	hl,8	;const
   282   0008b1 39              	add	hl,sp
   282   0008b2 e5              	push	hl
   282   0008b3 210000          	ld	hl,4	;const
   282   0008b6 e5              	push	hl
   282   0008b7 cd0000          	call	_esp0_outstruct
   282   0008ba c1              	pop	bc
   282   0008bb c1              	pop	bc
   282   0008bc 210000          	ld	hl,6	;const
   282   0008bf 39              	add	hl,sp
   282   0008c0 e5              	push	hl
   282   0008c1 cd0000          	call	_esp0_inbytewait
   282   0008c4 d1              	pop	de
   282   0008c5 cd0000          	call	l_pint
   282   0008c8 210000          	ld	hl,4	;const
   282   0008cb 39              	add	hl,sp
   282   0008cc e5              	push	hl
   282   0008cd cd0000          	call	_esp0_inbytewait
   282   0008d0 d1              	pop	de
   282   0008d1 cd0000          	call	l_pint
   282   0008d4 cd0000          	call	_esp0_inbytewait
   282   0008d7 d1              	pop	de
   282   0008d8 c1              	pop	bc
   282   0008d9 e5              	push	hl
   282   0008da d5              	push	de
   282   0008db 210000          	ld	hl,i_1+963
   282   0008de e5              	push	hl
   282   0008df 210000          	ld	hl,8	;const
   282   0008e2 cd0000          	call	l_g2intspsp	;
   282   0008e5 210000          	ld	hl,8	;const
   282   0008e8 39              	add	hl,sp
   282   0008e9 cd0000          	call	l_gint	;
   282   0008ec e5              	push	hl
   282   0008ed 3e00            	ld	a,4
   282   0008ef cd0000          	call	printf
   282   0008f2 c1              	pop	bc
   282   0008f3 c1              	pop	bc
   282   0008f4 c1              	pop	bc
   282   0008f5 c1              	pop	bc
   282   0008f6 c30000          	jp	i_4	;EOS
   282                          .i_5
   282   0008f9 210000          	ld	hl,12	;const
   282   0008fc 39              	add	hl,sp
   282   0008fd f9              	ld	sp,hl
   282   0008fe c9              	ret
   282                          
   282                          
   282                          	C_LINE	313,"testesp.c::get_pixel_test::0::14"
testesp.c::get_pixel_test::0::14:
   313                          
   313                          ; Function invert_rectangle_test flags 0x00000200 __smallc
   313                          ; int invert_rectangle_test()
   313                          	C_LINE	314,"testesp.c::invert_rectangle_test::0::14"
testesp.c::invert_rectangle_test::0::14:
   314                          ._invert_rectangle_test
   314   0008ff c5              	push	bc
   314   000900 c5              	push	bc
   314   000901 c5              	push	bc
   314   000902 c5              	push	bc
   314   000903 210000          	ld	hl,i_1+24
   314   000906 e5              	push	hl
   314   000907 3e00            	ld	a,1
   314   000909 cd0000          	call	printf
   314   00090c 210000          	ld	hl,i_1+36
   314   00090f e3              	ex	(sp),hl
   314   000910 cd0000          	call	_printcentered
   314   000913 c1              	pop	bc
   314   000914 210000          	ld	hl,i_1+158
   314   000917 e5              	push	hl
   314   000918 cd0000          	call	puts
   314   00091b 210000          	ld	hl,i_1+1006
   314   00091e e3              	ex	(sp),hl
   314   00091f cd0000          	call	_printcentered
   314   000922 c1              	pop	bc
   314   000923 210000          	ld	hl,i_1+279
   314   000926 e5              	push	hl
   314   000927 cd0000          	call	puts
   314   00092a c1              	pop	bc
   314   00092b 210000          	ld	hl,i_1+284
   314   00092e e5              	push	hl
   314   00092f 3e00            	ld	a,1
   314   000931 cd0000          	call	printf
   314   000934 c1              	pop	bc
   314   000935 210000          	ld	hl,i_1+305
   314   000938 e5              	push	hl
   314   000939 3e00            	ld	a,1
   314   00093b cd0000          	call	printf
   314   00093e c1              	pop	bc
   314   00093f 210000          	ld	hl,i_1+326
   314   000942 e5              	push	hl
   314   000943 3e00            	ld	a,1
   314   000945 cd0000          	call	printf
   314   000948 c1              	pop	bc
   314   000949 210000          	ld	hl,i_1+347
   314   00094c e5              	push	hl
   314   00094d 3e00            	ld	a,1
   314   00094f cd0000          	call	printf
   314   000952 c1              	pop	bc
   314   000953 210000          	ld	hl,i_1+410
   314   000956 e5              	push	hl
   314   000957 3e00            	ld	a,1
   314   000959 cd0000          	call	printf
   314   00095c c1              	pop	bc
   314   00095d 210000          	ld	hl,0	;const
   314   000960 39              	add	hl,sp
   314   000961 e5              	push	hl
   314   000962 cd0000          	call	_getint
   314   000965 d1              	pop	de
   314   000966 cd0000          	call	l_pint
   314   000969 210000          	ld	hl,i_1+423
   314   00096c e5              	push	hl
   314   00096d 3e00            	ld	a,1
   314   00096f cd0000          	call	printf
   314   000972 c1              	pop	bc
   314   000973 210000          	ld	hl,2	;const
   314   000976 39              	add	hl,sp
   314   000977 e5              	push	hl
   314   000978 cd0000          	call	_getint
   314   00097b d1              	pop	de
   314   00097c cd0000          	call	l_pint
   314   00097f 210000          	ld	hl,i_1+436
   314   000982 e5              	push	hl
   314   000983 3e00            	ld	a,1
   314   000985 cd0000          	call	printf
   314   000988 c1              	pop	bc
   314   000989 210000          	ld	hl,4	;const
   314   00098c 39              	add	hl,sp
   314   00098d e5              	push	hl
   314   00098e cd0000          	call	_getint
   314   000991 d1              	pop	de
   314   000992 cd0000          	call	l_pint
   314   000995 210000          	ld	hl,i_1+449
   314   000998 e5              	push	hl
   314   000999 3e00            	ld	a,1
   314   00099b cd0000          	call	printf
   314   00099e c1              	pop	bc
   314   00099f 210000          	ld	hl,6	;const
   314   0009a2 39              	add	hl,sp
   314   0009a3 e5              	push	hl
   314   0009a4 cd0000          	call	_getint
   314   0009a7 d1              	pop	de
   314   0009a8 cd0000          	call	l_pint
   314   0009ab 210000          	ld	hl,28	;const
   314   0009ae e5              	push	hl
   314   0009af cd0000          	call	_esp0_outbyte
   314   0009b2 c1              	pop	bc
   314   0009b3 210000          	ld	hl,0	;const
   314   0009b6 39              	add	hl,sp
   314   0009b7 e5              	push	hl
   314   0009b8 210000          	ld	hl,8	;const
   314   0009bb e5              	push	hl
   314   0009bc cd0000          	call	_esp0_outstruct
   314   0009bf c1              	pop	bc
   314   0009c0 c1              	pop	bc
   314   0009c1 c1              	pop	bc
   314   0009c2 c1              	pop	bc
   314   0009c3 c1              	pop	bc
   314   0009c4 c1              	pop	bc
   314   0009c5 c9              	ret
   314                          
   314                          
   314                          	C_LINE	336,"testesp.c::invert_rectangle_test::0::15"
testesp.c::invert_rectangle_test::0::15:
   336                          
   336                          ; Function draw_line_to_test flags 0x00000200 __smallc
   336                          ; int draw_line_to_test()
   336                          	C_LINE	337,"testesp.c::draw_line_to_test::0::15"
testesp.c::draw_line_to_test::0::15:
   337                          ._draw_line_to_test
   337   0009c6 c5              	push	bc
   337   0009c7 c5              	push	bc
   337   0009c8 210000          	ld	hl,i_1+24
   337   0009cb e5              	push	hl
   337   0009cc 3e00            	ld	a,1
   337   0009ce cd0000          	call	printf
   337   0009d1 210000          	ld	hl,i_1+36
   337   0009d4 e3              	ex	(sp),hl
   337   0009d5 cd0000          	call	_printcentered
   337   0009d8 c1              	pop	bc
   337   0009d9 210000          	ld	hl,i_1+158
   337   0009dc e5              	push	hl
   337   0009dd cd0000          	call	puts
   337   0009e0 210000          	ld	hl,i_1+1030
   337   0009e3 e3              	ex	(sp),hl
   337   0009e4 cd0000          	call	_printcentered
   337   0009e7 c1              	pop	bc
   337   0009e8 210000          	ld	hl,i_1+279
   337   0009eb e5              	push	hl
   337   0009ec cd0000          	call	puts
   337   0009ef c1              	pop	bc
   337   0009f0 210000          	ld	hl,i_1+507
   337   0009f3 e5              	push	hl
   337   0009f4 3e00            	ld	a,1
   337   0009f6 cd0000          	call	printf
   337   0009f9 c1              	pop	bc
   337   0009fa 210000          	ld	hl,i_1+528
   337   0009fd e5              	push	hl
   337   0009fe 3e00            	ld	a,1
   337   000a00 cd0000          	call	printf
   337   000a03 c1              	pop	bc
   337   000a04 210000          	ld	hl,i_1+410
   337   000a07 e5              	push	hl
   337   000a08 3e00            	ld	a,1
   337   000a0a cd0000          	call	printf
   337   000a0d c1              	pop	bc
   337   000a0e 210000          	ld	hl,0	;const
   337   000a11 39              	add	hl,sp
   337   000a12 e5              	push	hl
   337   000a13 cd0000          	call	_getint
   337   000a16 d1              	pop	de
   337   000a17 cd0000          	call	l_pint
   337   000a1a 210000          	ld	hl,i_1+423
   337   000a1d e5              	push	hl
   337   000a1e 3e00            	ld	a,1
   337   000a20 cd0000          	call	printf
   337   000a23 c1              	pop	bc
   337   000a24 210000          	ld	hl,2	;const
   337   000a27 39              	add	hl,sp
   337   000a28 e5              	push	hl
   337   000a29 cd0000          	call	_getint
   337   000a2c d1              	pop	de
   337   000a2d cd0000          	call	l_pint
   337   000a30 210000          	ld	hl,29	;const
   337   000a33 e5              	push	hl
   337   000a34 cd0000          	call	_esp0_outbyte
   337   000a37 c1              	pop	bc
   337   000a38 210000          	ld	hl,0	;const
   337   000a3b 39              	add	hl,sp
   337   000a3c e5              	push	hl
   337   000a3d 210000          	ld	hl,4	;const
   337   000a40 e5              	push	hl
   337   000a41 cd0000          	call	_esp0_outstruct
   337   000a44 c1              	pop	bc
   337   000a45 c1              	pop	bc
   337   000a46 c1              	pop	bc
   337   000a47 c1              	pop	bc
   337   000a48 c9              	ret
   337                          
   337                          
   337                          	C_LINE	355,"testesp.c::draw_line_to_test::0::16"
testesp.c::draw_line_to_test::0::16:
   355                          
   355                          ; Function move_cursor_to_test flags 0x00000200 __smallc
   355                          ; int move_cursor_to_test()
   355                          	C_LINE	356,"testesp.c::move_cursor_to_test::0::16"
testesp.c::move_cursor_to_test::0::16:
   356                          ._move_cursor_to_test
   356   000a49 c5              	push	bc
   356   000a4a c5              	push	bc
   356   000a4b 210000          	ld	hl,i_1+24
   356   000a4e e5              	push	hl
   356   000a4f 3e00            	ld	a,1
   356   000a51 cd0000          	call	printf
   356   000a54 210000          	ld	hl,i_1+36
   356   000a57 e3              	ex	(sp),hl
   356   000a58 cd0000          	call	_printcentered
   356   000a5b c1              	pop	bc
   356   000a5c 210000          	ld	hl,i_1+158
   356   000a5f e5              	push	hl
   356   000a60 cd0000          	call	puts
   356   000a63 210000          	ld	hl,i_1+1068
   356   000a66 e3              	ex	(sp),hl
   356   000a67 cd0000          	call	_printcentered
   356   000a6a c1              	pop	bc
   356   000a6b 210000          	ld	hl,i_1+279
   356   000a6e e5              	push	hl
   356   000a6f cd0000          	call	puts
   356   000a72 c1              	pop	bc
   356   000a73 210000          	ld	hl,i_1+507
   356   000a76 e5              	push	hl
   356   000a77 3e00            	ld	a,1
   356   000a79 cd0000          	call	printf
   356   000a7c c1              	pop	bc
   356   000a7d 210000          	ld	hl,i_1+528
   356   000a80 e5              	push	hl
   356   000a81 3e00            	ld	a,1
   356   000a83 cd0000          	call	printf
   356   000a86 c1              	pop	bc
   356   000a87 210000          	ld	hl,i_1+410
   356   000a8a e5              	push	hl
   356   000a8b 3e00            	ld	a,1
   356   000a8d cd0000          	call	printf
   356   000a90 c1              	pop	bc
   356   000a91 210000          	ld	hl,0	;const
   356   000a94 39              	add	hl,sp
   356   000a95 e5              	push	hl
   356   000a96 cd0000          	call	_getint
   356   000a99 d1              	pop	de
   356   000a9a cd0000          	call	l_pint
   356   000a9d 210000          	ld	hl,i_1+423
   356   000aa0 e5              	push	hl
   356   000aa1 3e00            	ld	a,1
   356   000aa3 cd0000          	call	printf
   356   000aa6 c1              	pop	bc
   356   000aa7 210000          	ld	hl,2	;const
   356   000aaa 39              	add	hl,sp
   356   000aab e5              	push	hl
   356   000aac cd0000          	call	_getint
   356   000aaf d1              	pop	de
   356   000ab0 cd0000          	call	l_pint
   356   000ab3 210000          	ld	hl,30	;const
   356   000ab6 e5              	push	hl
   356   000ab7 cd0000          	call	_esp0_outbyte
   356   000aba c1              	pop	bc
   356   000abb 210000          	ld	hl,0	;const
   356   000abe 39              	add	hl,sp
   356   000abf e5              	push	hl
   356   000ac0 210000          	ld	hl,4	;const
   356   000ac3 e5              	push	hl
   356   000ac4 cd0000          	call	_esp0_outstruct
   356   000ac7 c1              	pop	bc
   356   000ac8 c1              	pop	bc
   356   000ac9 c1              	pop	bc
   356   000aca c1              	pop	bc
   356   000acb c9              	ret
   356                          
   356                          
   356                          	C_LINE	374,"testesp.c::move_cursor_to_test::0::17"
testesp.c::move_cursor_to_test::0::17:
   374                          
   374                          ; Function scroll_test flags 0x00000200 __smallc
   374                          ; int scroll_test()
   374                          	C_LINE	375,"testesp.c::scroll_test::0::17"
testesp.c::scroll_test::0::17:
   375                          ._scroll_test
   375   000acc c5              	push	bc
   375   000acd c5              	push	bc
   375   000ace 210000          	ld	hl,i_1+24
   375   000ad1 e5              	push	hl
   375   000ad2 3e00            	ld	a,1
   375   000ad4 cd0000          	call	printf
   375   000ad7 210000          	ld	hl,i_1+36
   375   000ada e3              	ex	(sp),hl
   375   000adb cd0000          	call	_printcentered
   375   000ade c1              	pop	bc
   375   000adf 210000          	ld	hl,i_1+158
   375   000ae2 e5              	push	hl
   375   000ae3 cd0000          	call	puts
   375   000ae6 210000          	ld	hl,i_1+1092
   375   000ae9 e3              	ex	(sp),hl
   375   000aea cd0000          	call	_printcentered
   375   000aed c1              	pop	bc
   375   000aee 210000          	ld	hl,i_1+279
   375   000af1 e5              	push	hl
   375   000af2 cd0000          	call	puts
   375   000af5 c1              	pop	bc
   375   000af6 210000          	ld	hl,i_1+1136
   375   000af9 e5              	push	hl
   375   000afa 3e00            	ld	a,1
   375   000afc cd0000          	call	printf
   375   000aff c1              	pop	bc
   375   000b00 210000          	ld	hl,i_1+1157
   375   000b03 e5              	push	hl
   375   000b04 3e00            	ld	a,1
   375   000b06 cd0000          	call	printf
   375   000b09 c1              	pop	bc
   375   000b0a 210000          	ld	hl,i_1+410
   375   000b0d e5              	push	hl
   375   000b0e 3e00            	ld	a,1
   375   000b10 cd0000          	call	printf
   375   000b13 c1              	pop	bc
   375   000b14 210000          	ld	hl,0	;const
   375   000b17 39              	add	hl,sp
   375   000b18 e5              	push	hl
   375   000b19 cd0000          	call	_getint
   375   000b1c d1              	pop	de
   375   000b1d cd0000          	call	l_pint
   375   000b20 210000          	ld	hl,i_1+423
   375   000b23 e5              	push	hl
   375   000b24 3e00            	ld	a,1
   375   000b26 cd0000          	call	printf
   375   000b29 c1              	pop	bc
   375   000b2a 210000          	ld	hl,2	;const
   375   000b2d 39              	add	hl,sp
   375   000b2e e5              	push	hl
   375   000b2f cd0000          	call	_getint
   375   000b32 d1              	pop	de
   375   000b33 cd0000          	call	l_pint
   375   000b36 210000          	ld	hl,31	;const
   375   000b39 e5              	push	hl
   375   000b3a cd0000          	call	_esp0_outbyte
   375   000b3d c1              	pop	bc
   375   000b3e 210000          	ld	hl,0	;const
   375   000b41 39              	add	hl,sp
   375   000b42 e5              	push	hl
   375   000b43 210000          	ld	hl,4	;const
   375   000b46 e5              	push	hl
   375   000b47 cd0000          	call	_esp0_outstruct
   375   000b4a c1              	pop	bc
   375   000b4b c1              	pop	bc
   375   000b4c c1              	pop	bc
   375   000b4d c1              	pop	bc
   375   000b4e c9              	ret
   375                          
   375                          
   375                          	C_LINE	393,"testesp.c::scroll_test::0::18"
testesp.c::scroll_test::0::18:
   393                          
   393                          ; Function set_brush_color_test flags 0x00000200 __smallc
   393                          ; int set_brush_color_test()
   393                          	C_LINE	394,"testesp.c::set_brush_color_test::0::18"
testesp.c::set_brush_color_test::0::18:
   394                          ._set_brush_color_test
   394   000b4f 3b              	dec	sp
   394   000b50 210000          	ld	hl,i_1+24
   394   000b53 e5              	push	hl
   394   000b54 3e00            	ld	a,1
   394   000b56 cd0000          	call	printf
   394   000b59 210000          	ld	hl,i_1+36
   394   000b5c e3              	ex	(sp),hl
   394   000b5d cd0000          	call	_printcentered
   394   000b60 c1              	pop	bc
   394   000b61 210000          	ld	hl,i_1+158
   394   000b64 e5              	push	hl
   394   000b65 cd0000          	call	puts
   394   000b68 210000          	ld	hl,i_1+1178
   394   000b6b e3              	ex	(sp),hl
   394   000b6c cd0000          	call	_printcentered
   394   000b6f c1              	pop	bc
   394   000b70 210000          	ld	hl,i_1+279
   394   000b73 e5              	push	hl
   394   000b74 cd0000          	call	puts
   394   000b77 c1              	pop	bc
   394   000b78 210000          	ld	hl,i_1+1194
   394   000b7b e5              	push	hl
   394   000b7c 3e00            	ld	a,1
   394   000b7e cd0000          	call	printf
   394   000b81 c1              	pop	bc
   394   000b82 210000          	ld	hl,i_1+410
   394   000b85 e5              	push	hl
   394   000b86 3e00            	ld	a,1
   394   000b88 cd0000          	call	printf
   394   000b8b c1              	pop	bc
   394   000b8c 210000          	ld	hl,0	;const
   394   000b8f 39              	add	hl,sp
   394   000b90 e5              	push	hl
   394   000b91 cd0000          	call	_getbyte
   394   000b94 7d              	ld	a,l
   394   000b95 d1              	pop	de
   394   000b96 12              	ld	(de),a
   394   000b97 210000          	ld	hl,32	;const
   394   000b9a e5              	push	hl
   394   000b9b cd0000          	call	_esp0_outbyte
   394   000b9e c1              	pop	bc
   394   000b9f 210000          	ld	hl,0	;const
   394   000ba2 39              	add	hl,sp
   394   000ba3 cd0000          	call	l_gchar
   394   000ba6 e5              	push	hl
   394   000ba7 cd0000          	call	_esp0_outbyte
   394   000baa c1              	pop	bc
   394   000bab 33              	inc	sp
   394   000bac c9              	ret
   394                          
   394                          
   394                          	C_LINE	409,"testesp.c::set_brush_color_test::0::19"
testesp.c::set_brush_color_test::0::19:
   409                          
   409                          ; Function set_line_end_test flags 0x00000200 __smallc
   409                          ; int set_line_end_test()
   409                          	C_LINE	410,"testesp.c::set_line_end_test::0::19"
testesp.c::set_line_end_test::0::19:
   410                          ._set_line_end_test
   410   000bad 3b              	dec	sp
   410   000bae 210000          	ld	hl,i_1+24
   410   000bb1 e5              	push	hl
   410   000bb2 3e00            	ld	a,1
   410   000bb4 cd0000          	call	printf
   410   000bb7 210000          	ld	hl,i_1+36
   410   000bba e3              	ex	(sp),hl
   410   000bbb cd0000          	call	_printcentered
   410   000bbe c1              	pop	bc
   410   000bbf 210000          	ld	hl,i_1+158
   410   000bc2 e5              	push	hl
   410   000bc3 cd0000          	call	puts
   410   000bc6 210000          	ld	hl,i_1+1215
   410   000bc9 e3              	ex	(sp),hl
   410   000bca cd0000          	call	_printcentered
   410   000bcd c1              	pop	bc
   410   000bce 210000          	ld	hl,i_1+279
   410   000bd1 e5              	push	hl
   410   000bd2 cd0000          	call	puts
   410   000bd5 c1              	pop	bc
   410   000bd6 210000          	ld	hl,i_1+1255
   410   000bd9 e5              	push	hl
   410   000bda 3e00            	ld	a,1
   410   000bdc cd0000          	call	printf
   410   000bdf c1              	pop	bc
   410   000be0 210000          	ld	hl,i_1+410
   410   000be3 e5              	push	hl
   410   000be4 3e00            	ld	a,1
   410   000be6 cd0000          	call	printf
   410   000be9 c1              	pop	bc
   410   000bea 210000          	ld	hl,0	;const
   410   000bed 39              	add	hl,sp
   410   000bee e5              	push	hl
   410   000bef cd0000          	call	_getbyte
   410   000bf2 7d              	ld	a,l
   410   000bf3 d1              	pop	de
   410   000bf4 12              	ld	(de),a
   410   000bf5 210000          	ld	hl,33	;const
   410   000bf8 e5              	push	hl
   410   000bf9 cd0000          	call	_esp0_outbyte
   410   000bfc c1              	pop	bc
   410   000bfd 210000          	ld	hl,0	;const
   410   000c00 39              	add	hl,sp
   410   000c01 cd0000          	call	l_gchar
   410   000c04 e5              	push	hl
   410   000c05 cd0000          	call	_esp0_outbyte
   410   000c08 c1              	pop	bc
   410   000c09 33              	inc	sp
   410   000c0a c9              	ret
   410                          
   410                          
   410                          	C_LINE	425,"testesp.c::set_line_end_test::0::20"
testesp.c::set_line_end_test::0::20:
   425                          
   425                          ; Function set_pen_color_test flags 0x00000200 __smallc
   425                          ; int set_pen_color_test()
   425                          	C_LINE	426,"testesp.c::set_pen_color_test::0::20"
testesp.c::set_pen_color_test::0::20:
   426                          ._set_pen_color_test
   426   000c0b 3b              	dec	sp
   426   000c0c 210000          	ld	hl,i_1+24
   426   000c0f e5              	push	hl
   426   000c10 3e00            	ld	a,1
   426   000c12 cd0000          	call	printf
   426   000c15 210000          	ld	hl,i_1+36
   426   000c18 e3              	ex	(sp),hl
   426   000c19 cd0000          	call	_printcentered
   426   000c1c c1              	pop	bc
   426   000c1d 210000          	ld	hl,i_1+158
   426   000c20 e5              	push	hl
   426   000c21 cd0000          	call	puts
   426   000c24 210000          	ld	hl,i_1+1275
   426   000c27 e3              	ex	(sp),hl
   426   000c28 cd0000          	call	_printcentered
   426   000c2b c1              	pop	bc
   426   000c2c 210000          	ld	hl,i_1+279
   426   000c2f e5              	push	hl
   426   000c30 cd0000          	call	puts
   426   000c33 c1              	pop	bc
   426   000c34 210000          	ld	hl,i_1+1194
   426   000c37 e5              	push	hl
   426   000c38 3e00            	ld	a,1
   426   000c3a cd0000          	call	printf
   426   000c3d c1              	pop	bc
   426   000c3e 210000          	ld	hl,i_1+410
   426   000c41 e5              	push	hl
   426   000c42 3e00            	ld	a,1
   426   000c44 cd0000          	call	printf
   426   000c47 c1              	pop	bc
   426   000c48 210000          	ld	hl,0	;const
   426   000c4b 39              	add	hl,sp
   426   000c4c e5              	push	hl
   426   000c4d cd0000          	call	_getbyte
   426   000c50 7d              	ld	a,l
   426   000c51 d1              	pop	de
   426   000c52 12              	ld	(de),a
   426   000c53 210000          	ld	hl,34	;const
   426   000c56 e5              	push	hl
   426   000c57 cd0000          	call	_esp0_outbyte
   426   000c5a c1              	pop	bc
   426   000c5b 210000          	ld	hl,0	;const
   426   000c5e 39              	add	hl,sp
   426   000c5f cd0000          	call	l_gchar
   426   000c62 e5              	push	hl
   426   000c63 cd0000          	call	_esp0_outbyte
   426   000c66 c1              	pop	bc
   426   000c67 33              	inc	sp
   426   000c68 c9              	ret
   426                          
   426                          
   426                          	C_LINE	441,"testesp.c::set_pen_color_test::0::21"
testesp.c::set_pen_color_test::0::21:
   441                          
   441                          ; Function set_pen_width_test flags 0x00000200 __smallc
   441                          ; int set_pen_width_test()
   441                          	C_LINE	442,"testesp.c::set_pen_width_test::0::21"
testesp.c::set_pen_width_test::0::21:
   442                          ._set_pen_width_test
   442   000c69 3b              	dec	sp
   442   000c6a 210000          	ld	hl,i_1+24
   442   000c6d e5              	push	hl
   442   000c6e 3e00            	ld	a,1
   442   000c70 cd0000          	call	printf
   442   000c73 210000          	ld	hl,i_1+36
   442   000c76 e3              	ex	(sp),hl
   442   000c77 cd0000          	call	_printcentered
   442   000c7a c1              	pop	bc
   442   000c7b 210000          	ld	hl,i_1+158
   442   000c7e e5              	push	hl
   442   000c7f cd0000          	call	puts
   442   000c82 210000          	ld	hl,i_1+1289
   442   000c85 e3              	ex	(sp),hl
   442   000c86 cd0000          	call	_printcentered
   442   000c89 c1              	pop	bc
   442   000c8a 210000          	ld	hl,i_1+279
   442   000c8d e5              	push	hl
   442   000c8e cd0000          	call	puts
   442   000c91 c1              	pop	bc
   442   000c92 210000          	ld	hl,i_1+1303
   442   000c95 e5              	push	hl
   442   000c96 3e00            	ld	a,1
   442   000c98 cd0000          	call	printf
   442   000c9b c1              	pop	bc
   442   000c9c 210000          	ld	hl,i_1+410
   442   000c9f e5              	push	hl
   442   000ca0 3e00            	ld	a,1
   442   000ca2 cd0000          	call	printf
   442   000ca5 c1              	pop	bc
   442   000ca6 210000          	ld	hl,0	;const
   442   000ca9 39              	add	hl,sp
   442   000caa e5              	push	hl
   442   000cab cd0000          	call	_getbyte
   442   000cae 7d              	ld	a,l
   442   000caf d1              	pop	de
   442   000cb0 12              	ld	(de),a
   442   000cb1 210000          	ld	hl,35	;const
   442   000cb4 e5              	push	hl
   442   000cb5 cd0000          	call	_esp0_outbyte
   442   000cb8 c1              	pop	bc
   442   000cb9 210000          	ld	hl,0	;const
   442   000cbc 39              	add	hl,sp
   442   000cbd cd0000          	call	l_gchar
   442   000cc0 e5              	push	hl
   442   000cc1 cd0000          	call	_esp0_outbyte
   442   000cc4 c1              	pop	bc
   442   000cc5 33              	inc	sp
   442   000cc6 c9              	ret
   442                          
   442                          
   442                          	C_LINE	457,"testesp.c::set_pen_width_test::0::22"
testesp.c::set_pen_width_test::0::22:
   457                          
   457                          ; Function set_pixel_test flags 0x00000200 __smallc
   457                          ; int set_pixel_test()
   457                          	C_LINE	458,"testesp.c::set_pixel_test::0::22"
testesp.c::set_pixel_test::0::22:
   458                          ._set_pixel_test
   458   000cc7 c5              	push	bc
   458   000cc8 c5              	push	bc
   458   000cc9 210000          	ld	hl,0	;const
   458   000ccc e5              	push	hl
   458   000ccd 110000          	ld	de,0	;const
   458   000cd0 d5              	push	de
   458   000cd1 e5              	push	hl
   458   000cd2 210000          	ld	hl,1	;const
   458   000cd5 e5              	push	hl
   458   000cd6 210000          	ld	hl,i_1+24
   458   000cd9 e5              	push	hl
   458   000cda 3e00            	ld	a,1
   458   000cdc cd0000          	call	printf
   458   000cdf 210000          	ld	hl,i_1+36
   458   000ce2 e3              	ex	(sp),hl
   458   000ce3 cd0000          	call	_printcentered
   458   000ce6 c1              	pop	bc
   458   000ce7 210000          	ld	hl,i_1+158
   458   000cea e5              	push	hl
   458   000ceb cd0000          	call	puts
   458   000cee 210000          	ld	hl,i_1+1324
   458   000cf1 e3              	ex	(sp),hl
   458   000cf2 cd0000          	call	_printcentered
   458   000cf5 c1              	pop	bc
   458   000cf6 210000          	ld	hl,i_1+279
   458   000cf9 e5              	push	hl
   458   000cfa cd0000          	call	puts
   458   000cfd 210000          	ld	hl,i_1+877
   458   000d00 e3              	ex	(sp),hl
   458   000d01 cd0000          	call	_printcentered
   458   000d04 c1              	pop	bc
   458                          .i_9
   458   000d05 e1              	pop	hl
   458   000d06 e5              	push	hl
   458   000d07 7c              	ld	a,h
   458   000d08 b5              	or	l
   458   000d09 ca0000          	jp	z,i_10	;
   458   000d0c 210000          	ld	hl,i_1+899
   458   000d0f e5              	push	hl
   458   000d10 3e00            	ld	a,1
   458   000d12 cd0000          	call	printf
   458   000d15 c1              	pop	bc
   458   000d16 210000          	ld	hl,i_1+931
   458   000d19 e5              	push	hl
   458   000d1a 3e00            	ld	a,1
   458   000d1c cd0000          	call	printf
   458   000d1f c1              	pop	bc
   458   000d20 210000          	ld	hl,i_1+410
   458   000d23 e5              	push	hl
   458   000d24 3e00            	ld	a,1
   458   000d26 cd0000          	call	printf
   458   000d29 c1              	pop	bc
   458   000d2a 210000          	ld	hl,8	;const
   458   000d2d 39              	add	hl,sp
   458   000d2e e5              	push	hl
   458   000d2f cd0000          	call	_getint
   458   000d32 d1              	pop	de
   458   000d33 cd0000          	call	l_pint
   458   000d36 210000          	ld	hl,i_1+423
   458   000d39 e5              	push	hl
   458   000d3a 3e00            	ld	a,1
   458   000d3c cd0000          	call	printf
   458   000d3f c1              	pop	bc
   458   000d40 210000          	ld	hl,10	;const
   458   000d43 39              	add	hl,sp
   458   000d44 e5              	push	hl
   458   000d45 cd0000          	call	_getint
   458   000d48 d1              	pop	de
   458   000d49 cd0000          	call	l_pint
   458   000d4c 210000          	ld	hl,8	;const
   458   000d4f 39              	add	hl,sp
   458   000d50 cd0000          	call	l_gint	;
   458   000d53 7c              	ld	a,h
   458   000d54 b5              	or	l
   458   000d55 2000            	jr	nz,ASMPC+3
   458   000d57 37              	scf
   458   000d58 d20000          	jp	nc,i_12	;
   458   000d5b 210000          	ld	hl,10	;const
   458   000d5e 39              	add	hl,sp
   458   000d5f cd0000          	call	l_gint	;
   458   000d62 7c              	ld	a,h
   458   000d63 b5              	or	l
   458   000d64 2000            	jr	nz,ASMPC+3
   458   000d66 37              	scf
   458   000d67 d20000          	jp	nc,i_12	;
   458                          .i_13_i_12
   458   000d6a 210000          	ld	hl,0	;const
   458   000d6d c1              	pop	bc
   458   000d6e e5              	push	hl
   458                          .i_11
   458   000d6f 210000          	ld	hl,36	;const
   458   000d72 e5              	push	hl
   458   000d73 cd0000          	call	_esp0_outbyte
   458   000d76 c1              	pop	bc
   458   000d77 210000          	ld	hl,8	;const
   458   000d7a 39              	add	hl,sp
   458   000d7b e5              	push	hl
   458   000d7c 210000          	ld	hl,4	;const
   458   000d7f e5              	push	hl
   458   000d80 cd0000          	call	_esp0_outstruct
   458   000d83 c1              	pop	bc
   458   000d84 c1              	pop	bc
   458   000d85 c30000          	jp	i_9	;EOS
   458                          .i_10
   458   000d88 210000          	ld	hl,12	;const
   458   000d8b 39              	add	hl,sp
   458   000d8c f9              	ld	sp,hl
   458   000d8d c9              	ret
   458                          
   458                          
   458                          	C_LINE	482,"testesp.c::set_pixel_test::0::24"
testesp.c::set_pixel_test::0::24:
   482                          
   482                          ; Function set_glyph_options_test flags 0x00000200 __smallc
   482                          ; int set_glyph_options_test()
   482                          	C_LINE	483,"testesp.c::set_glyph_options_test::0::24"
testesp.c::set_glyph_options_test::0::24:
   483                          ._set_glyph_options_test
   483   000d8e c5              	push	bc
   483   000d8f c5              	push	bc
   483   000d90 c5              	push	bc
   483   000d91 3b              	dec	sp
   483   000d92 210000          	ld	hl,i_1+24
   483   000d95 e5              	push	hl
   483   000d96 3e00            	ld	a,1
   483   000d98 cd0000          	call	printf
   483   000d9b 210000          	ld	hl,i_1+36
   483   000d9e e3              	ex	(sp),hl
   483   000d9f cd0000          	call	_printcentered
   483   000da2 c1              	pop	bc
   483   000da3 210000          	ld	hl,i_1+158
   483   000da6 e5              	push	hl
   483   000da7 cd0000          	call	puts
   483   000daa 210000          	ld	hl,i_1+1341
   483   000dad e3              	ex	(sp),hl
   483   000dae cd0000          	call	_printcentered
   483   000db1 c1              	pop	bc
   483   000db2 210000          	ld	hl,i_1+279
   483   000db5 e5              	push	hl
   483   000db6 cd0000          	call	puts
   483   000db9 c1              	pop	bc
   483   000dba 210000          	ld	hl,i_1+1367
   483   000dbd e5              	push	hl
   483   000dbe 3e00            	ld	a,1
   483   000dc0 cd0000          	call	printf
   483   000dc3 c1              	pop	bc
   483   000dc4 210000          	ld	hl,i_1+1400
   483   000dc7 e5              	push	hl
   483   000dc8 3e00            	ld	a,1
   483   000dca cd0000          	call	printf
   483   000dcd c1              	pop	bc
   483   000dce 210000          	ld	hl,i_1+1433
   483   000dd1 e5              	push	hl
   483   000dd2 3e00            	ld	a,1
   483   000dd4 cd0000          	call	printf
   483   000dd7 c1              	pop	bc
   483   000dd8 210000          	ld	hl,i_1+1466
   483   000ddb e5              	push	hl
   483   000ddc 3e00            	ld	a,1
   483   000dde cd0000          	call	printf
   483   000de1 c1              	pop	bc
   483   000de2 210000          	ld	hl,i_1+1499
   483   000de5 e5              	push	hl
   483   000de6 3e00            	ld	a,1
   483   000de8 cd0000          	call	printf
   483   000deb c1              	pop	bc
   483   000dec 210000          	ld	hl,i_1+1532
   483   000def e5              	push	hl
   483   000df0 3e00            	ld	a,1
   483   000df2 cd0000          	call	printf
   483   000df5 c1              	pop	bc
   483   000df6 210000          	ld	hl,i_1+1565
   483   000df9 e5              	push	hl
   483   000dfa 3e00            	ld	a,1
   483   000dfc cd0000          	call	printf
   483   000dff c1              	pop	bc
   483   000e00 210000          	ld	hl,i_1+1598
   483   000e03 e5              	push	hl
   483   000e04 3e00            	ld	a,1
   483   000e06 cd0000          	call	printf
   483   000e09 c1              	pop	bc
   483   000e0a 210000          	ld	hl,0	;const
   483   000e0d 39              	add	hl,sp
   483   000e0e e5              	push	hl
   483   000e0f cd0000          	call	_getbyte
   483   000e12 7d              	ld	a,l
   483   000e13 d1              	pop	de
   483   000e14 12              	ld	(de),a
   483   000e15 210000          	ld	hl,i_1+1611
   483   000e18 e5              	push	hl
   483   000e19 3e00            	ld	a,1
   483   000e1b cd0000          	call	printf
   483   000e1e c1              	pop	bc
   483   000e1f 210000          	ld	hl,1	;const
   483   000e22 39              	add	hl,sp
   483   000e23 e5              	push	hl
   483   000e24 cd0000          	call	_getbyte
   483   000e27 7d              	ld	a,l
   483   000e28 d1              	pop	de
   483   000e29 12              	ld	(de),a
   483   000e2a 210000          	ld	hl,i_1+1624
   483   000e2d e5              	push	hl
   483   000e2e 3e00            	ld	a,1
   483   000e30 cd0000          	call	printf
   483   000e33 c1              	pop	bc
   483   000e34 210000          	ld	hl,2	;const
   483   000e37 39              	add	hl,sp
   483   000e38 e5              	push	hl
   483   000e39 cd0000          	call	_getbyte
   483   000e3c 7d              	ld	a,l
   483   000e3d d1              	pop	de
   483   000e3e 12              	ld	(de),a
   483   000e3f 210000          	ld	hl,i_1+1637
   483   000e42 e5              	push	hl
   483   000e43 3e00            	ld	a,1
   483   000e45 cd0000          	call	printf
   483   000e48 c1              	pop	bc
   483   000e49 210000          	ld	hl,3	;const
   483   000e4c 39              	add	hl,sp
   483   000e4d e5              	push	hl
   483   000e4e cd0000          	call	_getbyte
   483   000e51 7d              	ld	a,l
   483   000e52 d1              	pop	de
   483   000e53 12              	ld	(de),a
   483   000e54 210000          	ld	hl,i_1+1650
   483   000e57 e5              	push	hl
   483   000e58 3e00            	ld	a,1
   483   000e5a cd0000          	call	printf
   483   000e5d c1              	pop	bc
   483   000e5e 210000          	ld	hl,4	;const
   483   000e61 39              	add	hl,sp
   483   000e62 e5              	push	hl
   483   000e63 cd0000          	call	_getbyte
   483   000e66 7d              	ld	a,l
   483   000e67 d1              	pop	de
   483   000e68 12              	ld	(de),a
   483   000e69 210000          	ld	hl,i_1+1663
   483   000e6c e5              	push	hl
   483   000e6d 3e00            	ld	a,1
   483   000e6f cd0000          	call	printf
   483   000e72 c1              	pop	bc
   483   000e73 210000          	ld	hl,5	;const
   483   000e76 39              	add	hl,sp
   483   000e77 e5              	push	hl
   483   000e78 cd0000          	call	_getbyte
   483   000e7b 7d              	ld	a,l
   483   000e7c d1              	pop	de
   483   000e7d 12              	ld	(de),a
   483   000e7e 210000          	ld	hl,i_1+1676
   483   000e81 e5              	push	hl
   483   000e82 3e00            	ld	a,1
   483   000e84 cd0000          	call	printf
   483   000e87 c1              	pop	bc
   483   000e88 210000          	ld	hl,6	;const
   483   000e8b 39              	add	hl,sp
   483   000e8c e5              	push	hl
   483   000e8d cd0000          	call	_getbyte
   483   000e90 7d              	ld	a,l
   483   000e91 d1              	pop	de
   483   000e92 12              	ld	(de),a
   483   000e93 210000          	ld	hl,37	;const
   483   000e96 e5              	push	hl
   483   000e97 cd0000          	call	_esp0_outbyte
   483   000e9a c1              	pop	bc
   483   000e9b 210000          	ld	hl,0	;const
   483   000e9e 39              	add	hl,sp
   483   000e9f e5              	push	hl
   483   000ea0 210000          	ld	hl,7	;const
   483   000ea3 e5              	push	hl
   483   000ea4 cd0000          	call	_esp0_outstruct
   483   000ea7 c1              	pop	bc
   483   000ea8 c1              	pop	bc
   483   000ea9 33              	inc	sp
   483   000eaa c1              	pop	bc
   483   000eab c1              	pop	bc
   483   000eac c1              	pop	bc
   483   000ead c9              	ret
   483                          
   483                          
   483                          	C_LINE	511,"testesp.c::set_glyph_options_test::0::25"
testesp.c::set_glyph_options_test::0::25:
   511                          
   511                          ; Function set_palette_item_test flags 0x00000200 __smallc
   511                          ; int set_palette_item_test()
   511                          	C_LINE	512,"testesp.c::set_palette_item_test::0::25"
testesp.c::set_palette_item_test::0::25:
   512                          ._set_palette_item_test
   512   000eae c5              	push	bc
   512   000eaf c5              	push	bc
   512   000eb0 210000          	ld	hl,i_1+24
   512   000eb3 e5              	push	hl
   512   000eb4 3e00            	ld	a,1
   512   000eb6 cd0000          	call	printf
   512   000eb9 210000          	ld	hl,i_1+36
   512   000ebc e3              	ex	(sp),hl
   512   000ebd cd0000          	call	_printcentered
   512   000ec0 c1              	pop	bc
   512   000ec1 210000          	ld	hl,i_1+158
   512   000ec4 e5              	push	hl
   512   000ec5 cd0000          	call	puts
   512   000ec8 210000          	ld	hl,i_1+1689
   512   000ecb e3              	ex	(sp),hl
   512   000ecc cd0000          	call	_printcentered
   512   000ecf c1              	pop	bc
   512   000ed0 210000          	ld	hl,i_1+279
   512   000ed3 e5              	push	hl
   512   000ed4 cd0000          	call	puts
   512   000ed7 c1              	pop	bc
   512   000ed8 210000          	ld	hl,i_1+1706
   512   000edb e5              	push	hl
   512   000edc 3e00            	ld	a,1
   512   000ede cd0000          	call	printf
   512   000ee1 c1              	pop	bc
   512   000ee2 210000          	ld	hl,i_1+1739
   512   000ee5 e5              	push	hl
   512   000ee6 3e00            	ld	a,1
   512   000ee8 cd0000          	call	printf
   512   000eeb c1              	pop	bc
   512   000eec 210000          	ld	hl,i_1+1772
   512   000eef e5              	push	hl
   512   000ef0 3e00            	ld	a,1
   512   000ef2 cd0000          	call	printf
   512   000ef5 c1              	pop	bc
   512   000ef6 210000          	ld	hl,i_1+1805
   512   000ef9 e5              	push	hl
   512   000efa 3e00            	ld	a,1
   512   000efc cd0000          	call	printf
   512   000eff c1              	pop	bc
   512   000f00 210000          	ld	hl,i_1+1598
   512   000f03 e5              	push	hl
   512   000f04 3e00            	ld	a,1
   512   000f06 cd0000          	call	printf
   512   000f09 c1              	pop	bc
   512   000f0a 210000          	ld	hl,0	;const
   512   000f0d 39              	add	hl,sp
   512   000f0e e5              	push	hl
   512   000f0f cd0000          	call	_getbyte
   512   000f12 7d              	ld	a,l
   512   000f13 d1              	pop	de
   512   000f14 12              	ld	(de),a
   512   000f15 210000          	ld	hl,i_1+1611
   512   000f18 e5              	push	hl
   512   000f19 3e00            	ld	a,1
   512   000f1b cd0000          	call	printf
   512   000f1e c1              	pop	bc
   512   000f1f 210000          	ld	hl,1	;const
   512   000f22 39              	add	hl,sp
   512   000f23 e5              	push	hl
   512   000f24 cd0000          	call	_getbyte
   512   000f27 7d              	ld	a,l
   512   000f28 d1              	pop	de
   512   000f29 12              	ld	(de),a
   512   000f2a 210000          	ld	hl,i_1+1624
   512   000f2d e5              	push	hl
   512   000f2e 3e00            	ld	a,1
   512   000f30 cd0000          	call	printf
   512   000f33 c1              	pop	bc
   512   000f34 210000          	ld	hl,2	;const
   512   000f37 39              	add	hl,sp
   512   000f38 e5              	push	hl
   512   000f39 cd0000          	call	_getbyte
   512   000f3c 7d              	ld	a,l
   512   000f3d d1              	pop	de
   512   000f3e 12              	ld	(de),a
   512   000f3f 210000          	ld	hl,i_1+1637
   512   000f42 e5              	push	hl
   512   000f43 3e00            	ld	a,1
   512   000f45 cd0000          	call	printf
   512   000f48 c1              	pop	bc
   512   000f49 210000          	ld	hl,3	;const
   512   000f4c 39              	add	hl,sp
   512   000f4d e5              	push	hl
   512   000f4e cd0000          	call	_getbyte
   512   000f51 7d              	ld	a,l
   512   000f52 d1              	pop	de
   512   000f53 12              	ld	(de),a
   512   000f54 210000          	ld	hl,38	;const
   512   000f57 e5              	push	hl
   512   000f58 cd0000          	call	_esp0_outbyte
   512   000f5b c1              	pop	bc
   512   000f5c 210000          	ld	hl,0	;const
   512   000f5f 39              	add	hl,sp
   512   000f60 e5              	push	hl
   512   000f61 210000          	ld	hl,4	;const
   512   000f64 e5              	push	hl
   512   000f65 cd0000          	call	_esp0_outstruct
   512   000f68 c1              	pop	bc
   512   000f69 c1              	pop	bc
   512   000f6a c1              	pop	bc
   512   000f6b c1              	pop	bc
   512   000f6c c9              	ret
   512                          
   512                          
   512                          	C_LINE	534,"testesp.c::set_palette_item_test::0::26"
testesp.c::set_palette_item_test::0::26:
   534                          
   534                          ; Function set_mouse_cursor_test flags 0x00000200 __smallc
   534                          ; int set_mouse_cursor_test()
   534                          	C_LINE	535,"testesp.c::set_mouse_cursor_test::0::26"
testesp.c::set_mouse_cursor_test::0::26:
   535                          ._set_mouse_cursor_test
   535   000f6d 3b              	dec	sp
   535   000f6e 210000          	ld	hl,i_1+24
   535   000f71 e5              	push	hl
   535   000f72 3e00            	ld	a,1
   535   000f74 cd0000          	call	printf
   535   000f77 210000          	ld	hl,i_1+36
   535   000f7a e3              	ex	(sp),hl
   535   000f7b cd0000          	call	_printcentered
   535   000f7e c1              	pop	bc
   535   000f7f 210000          	ld	hl,i_1+158
   535   000f82 e5              	push	hl
   535   000f83 cd0000          	call	puts
   535   000f86 210000          	ld	hl,i_1+1838
   535   000f89 e3              	ex	(sp),hl
   535   000f8a cd0000          	call	_printcentered
   535   000f8d c1              	pop	bc
   535   000f8e 210000          	ld	hl,i_1+279
   535   000f91 e5              	push	hl
   535   000f92 cd0000          	call	puts
   535   000f95 c1              	pop	bc
   535   000f96 210000          	ld	hl,i_1+1860
   535   000f99 e5              	push	hl
   535   000f9a 3e00            	ld	a,1
   535   000f9c cd0000          	call	printf
   535   000f9f c1              	pop	bc
   535   000fa0 210000          	ld	hl,i_1+1598
   535   000fa3 e5              	push	hl
   535   000fa4 3e00            	ld	a,1
   535   000fa6 cd0000          	call	printf
   535   000fa9 c1              	pop	bc
   535   000faa 210000          	ld	hl,0	;const
   535   000fad 39              	add	hl,sp
   535   000fae e5              	push	hl
   535   000faf cd0000          	call	_getbyte
   535   000fb2 7d              	ld	a,l
   535   000fb3 d1              	pop	de
   535   000fb4 12              	ld	(de),a
   535   000fb5 210000          	ld	hl,39	;const
   535   000fb8 e5              	push	hl
   535   000fb9 cd0000          	call	_esp0_outbyte
   535   000fbc c1              	pop	bc
   535   000fbd 210000          	ld	hl,0	;const
   535   000fc0 39              	add	hl,sp
   535   000fc1 cd0000          	call	l_gchar
   535   000fc4 e5              	push	hl
   535   000fc5 cd0000          	call	_esp0_outbyte
   535   000fc8 c1              	pop	bc
   535   000fc9 33              	inc	sp
   535   000fca c9              	ret
   535                          
   535                          
   535                          	C_LINE	550,"testesp.c::set_mouse_cursor_test::0::27"
testesp.c::set_mouse_cursor_test::0::27:
   550                          
   550                          ; Function set_mouse_cursor_position_test flags 0x00000200 __smallc
   550                          ; int set_mouse_cursor_position_test()
   550                          	C_LINE	551,"testesp.c::set_mouse_cursor_position_test::0::27"
testesp.c::set_mouse_cursor_position_test::0::27:
   551                          ._set_mouse_cursor_position_test
   551   000fcb c5              	push	bc
   551   000fcc c5              	push	bc
   551   000fcd 210000          	ld	hl,0	;const
   551   000fd0 e5              	push	hl
   551   000fd1 110000          	ld	de,0	;const
   551   000fd4 d5              	push	de
   551   000fd5 e5              	push	hl
   551   000fd6 210000          	ld	hl,1	;const
   551   000fd9 e5              	push	hl
   551   000fda 210000          	ld	hl,i_1+24
   551   000fdd e5              	push	hl
   551   000fde 3e00            	ld	a,1
   551   000fe0 cd0000          	call	printf
   551   000fe3 210000          	ld	hl,i_1+36
   551   000fe6 e3              	ex	(sp),hl
   551   000fe7 cd0000          	call	_printcentered
   551   000fea c1              	pop	bc
   551   000feb 210000          	ld	hl,i_1+158
   551   000fee e5              	push	hl
   551   000fef cd0000          	call	puts
   551   000ff2 210000          	ld	hl,i_1+1893
   551   000ff5 e3              	ex	(sp),hl
   551   000ff6 cd0000          	call	_printcentered
   551   000ff9 c1              	pop	bc
   551   000ffa 210000          	ld	hl,i_1+279
   551   000ffd e5              	push	hl
   551   000ffe cd0000          	call	puts
   551   001001 210000          	ld	hl,i_1+877
   551   001004 e3              	ex	(sp),hl
   551   001005 cd0000          	call	_printcentered
   551   001008 c1              	pop	bc
   551                          .i_14
   551   001009 e1              	pop	hl
   551   00100a e5              	push	hl
   551   00100b 7c              	ld	a,h
   551   00100c b5              	or	l
   551   00100d ca0000          	jp	z,i_15	;
   551   001010 210000          	ld	hl,i_1+899
   551   001013 e5              	push	hl
   551   001014 3e00            	ld	a,1
   551   001016 cd0000          	call	printf
   551   001019 c1              	pop	bc
   551   00101a 210000          	ld	hl,i_1+931
   551   00101d e5              	push	hl
   551   00101e 3e00            	ld	a,1
   551   001020 cd0000          	call	printf
   551   001023 c1              	pop	bc
   551   001024 210000          	ld	hl,i_1+410
   551   001027 e5              	push	hl
   551   001028 3e00            	ld	a,1
   551   00102a cd0000          	call	printf
   551   00102d c1              	pop	bc
   551   00102e 210000          	ld	hl,8	;const
   551   001031 39              	add	hl,sp
   551   001032 e5              	push	hl
   551   001033 cd0000          	call	_getint
   551   001036 d1              	pop	de
   551   001037 cd0000          	call	l_pint
   551   00103a 210000          	ld	hl,i_1+423
   551   00103d e5              	push	hl
   551   00103e 3e00            	ld	a,1
   551   001040 cd0000          	call	printf
   551   001043 c1              	pop	bc
   551   001044 210000          	ld	hl,10	;const
   551   001047 39              	add	hl,sp
   551   001048 e5              	push	hl
   551   001049 cd0000          	call	_getint
   551   00104c d1              	pop	de
   551   00104d cd0000          	call	l_pint
   551   001050 210000          	ld	hl,8	;const
   551   001053 39              	add	hl,sp
   551   001054 cd0000          	call	l_gint	;
   551   001057 7c              	ld	a,h
   551   001058 b5              	or	l
   551   001059 2000            	jr	nz,ASMPC+3
   551   00105b 37              	scf
   551   00105c d20000          	jp	nc,i_17	;
   551   00105f 210000          	ld	hl,10	;const
   551   001062 39              	add	hl,sp
   551   001063 cd0000          	call	l_gint	;
   551   001066 7c              	ld	a,h
   551   001067 b5              	or	l
   551   001068 2000            	jr	nz,ASMPC+3
   551   00106a 37              	scf
   551   00106b d20000          	jp	nc,i_17	;
   551                          .i_18_i_17
   551   00106e 210000          	ld	hl,0	;const
   551   001071 c1              	pop	bc
   551   001072 e5              	push	hl
   551                          .i_16
   551   001073 210000          	ld	hl,40	;const
   551   001076 e5              	push	hl
   551   001077 cd0000          	call	_esp0_outbyte
   551   00107a c1              	pop	bc
   551   00107b 210000          	ld	hl,8	;const
   551   00107e 39              	add	hl,sp
   551   00107f e5              	push	hl
   551   001080 210000          	ld	hl,4	;const
   551   001083 e5              	push	hl
   551   001084 cd0000          	call	_esp0_outstruct
   551   001087 c1              	pop	bc
   551   001088 c1              	pop	bc
   551   001089 c30000          	jp	i_14	;EOS
   551                          .i_15
   551   00108c 210000          	ld	hl,12	;const
   551   00108f 39              	add	hl,sp
   551   001090 f9              	ld	sp,hl
   551   001091 c9              	ret
   551                          
   551                          
   551                          	C_LINE	575,"testesp.c::set_mouse_cursor_position_test::0::29"
testesp.c::set_mouse_cursor_position_test::0::29:
   575                          
   575                          ; Function remove_sprites_test flags 0x00000200 __smallc
   575                          ; int remove_sprites_test()
   575                          	C_LINE	576,"testesp.c::remove_sprites_test::0::29"
testesp.c::remove_sprites_test::0::29:
   576                          ._remove_sprites_test
   576   001092 210000          	ld	hl,41	;const
   576   001095 e5              	push	hl
   576   001096 cd0000          	call	_esp0_outbyte
   576   001099 c1              	pop	bc
   576   00109a c9              	ret
   576                          
   576                          
   576                          	C_LINE	579,"testesp.c::remove_sprites_test::0::30"
testesp.c::remove_sprites_test::0::30:
   579                          
   579                          ; Function set_sprite_map_test flags 0x00000200 __smallc
   579                          ; int set_sprite_map_test()
   579                          	C_LINE	580,"testesp.c::set_sprite_map_test::0::30"
testesp.c::set_sprite_map_test::0::30:
   580                          ._set_sprite_map_test
   580   00109b c5              	push	bc
   580   00109c c5              	push	bc
   580   00109d c5              	push	bc
   580   00109e c5              	push	bc
   580   00109f 210000          	ld	hl,0	;const
   580   0010a2 39              	add	hl,sp
   580   0010a3 54              	ld	d,h
   580   0010a4 5d              	ld	e,l
   580   0010a5 af              	xor	a
   580   0010a6 12              	ld	(de),a
   580   0010a7 210000          	ld	hl,1	;const
   580   0010aa 39              	add	hl,sp
   580   0010ab 3600            	ld	(hl),16
   580   0010ad 23              	inc	hl
   580   0010ae 3600            	ld	(hl),0
   580   0010b0 210000          	ld	hl,3	;const
   580   0010b3 39              	add	hl,sp
   580   0010b4 3600            	ld	(hl),15
   580   0010b6 23              	inc	hl
   580   0010b7 3600            	ld	(hl),0
   580   0010b9 210000          	ld	hl,5	;const
   580   0010bc 39              	add	hl,sp
   580   0010bd 54              	ld	d,h
   580   0010be 5d              	ld	e,l
   580   0010bf 3e00            	ld	a,4
   580   0010c1 12              	ld	(de),a
   580   0010c2 210000          	ld	hl,6	;const
   580   0010c5 39              	add	hl,sp
   580   0010c6 3600            	ld	(hl),192
   580   0010c8 23              	inc	hl
   580   0010c9 3600            	ld	(hl),3
   580   0010cb 210000          	ld	hl,42	;const
   580   0010ce e5              	push	hl
   580   0010cf cd0000          	call	_esp0_outbyte
   580   0010d2 c1              	pop	bc
   580   0010d3 210000          	ld	hl,0	;const
   580   0010d6 39              	add	hl,sp
   580   0010d7 e5              	push	hl
   580   0010d8 210000          	ld	hl,8	;const
   580   0010db e5              	push	hl
   580   0010dc cd0000          	call	_esp0_outstruct
   580   0010df c1              	pop	bc
   580   0010e0 c1              	pop	bc
   580   0010e1 210000          	ld	hl,_BITMAP_TEST
   580   0010e4 e5              	push	hl
   580   0010e5 210000          	ld	hl,960	;const
   580   0010e8 e5              	push	hl
   580   0010e9 cd0000          	call	_esp0_outstruct
   580   0010ec c1              	pop	bc
   580   0010ed c1              	pop	bc
   580   0010ee c1              	pop	bc
   580   0010ef c1              	pop	bc
   580   0010f0 c1              	pop	bc
   580   0010f1 c1              	pop	bc
   580   0010f2 c9              	ret
   580                          
   580                          
   580                          	C_LINE	591,"testesp.c::set_sprite_map_test::0::31"
testesp.c::set_sprite_map_test::0::31:
   591                          
   591                          ; Function set_sprite_location_test flags 0x00000200 __smallc
   591                          ; int set_sprite_location_test()
   591                          	C_LINE	592,"testesp.c::set_sprite_location_test::0::31"
testesp.c::set_sprite_location_test::0::31:
   592                          ._set_sprite_location_test
   592   0010f3 c5              	push	bc
   592   0010f4 c5              	push	bc
   592   0010f5 3b              	dec	sp
   592   0010f6 210000          	ld	hl,1	;const
   592   0010f9 e5              	push	hl
   592   0010fa 210000          	ld	hl,i_1+24
   592   0010fd e5              	push	hl
   592   0010fe 3e00            	ld	a,1
   592   001100 cd0000          	call	printf
   592   001103 210000          	ld	hl,i_1+36
   592   001106 e3              	ex	(sp),hl
   592   001107 cd0000          	call	_printcentered
   592   00110a c1              	pop	bc
   592   00110b 210000          	ld	hl,i_1+158
   592   00110e e5              	push	hl
   592   00110f cd0000          	call	puts
   592   001112 210000          	ld	hl,i_1+1893
   592   001115 e3              	ex	(sp),hl
   592   001116 cd0000          	call	_printcentered
   592   001119 c1              	pop	bc
   592   00111a 210000          	ld	hl,i_1+279
   592   00111d e5              	push	hl
   592   00111e cd0000          	call	puts
   592   001121 210000          	ld	hl,i_1+877
   592   001124 e3              	ex	(sp),hl
   592   001125 cd0000          	call	_printcentered
   592   001128 c1              	pop	bc
   592                          .i_19
   592   001129 e1              	pop	hl
   592   00112a e5              	push	hl
   592   00112b 7c              	ld	a,h
   592   00112c b5              	or	l
   592   00112d ca0000          	jp	z,i_20	;
   592   001130 210000          	ld	hl,i_1+899
   592   001133 e5              	push	hl
   592   001134 3e00            	ld	a,1
   592   001136 cd0000          	call	printf
   592   001139 c1              	pop	bc
   592   00113a 210000          	ld	hl,i_1+931
   592   00113d e5              	push	hl
   592   00113e 3e00            	ld	a,1
   592   001140 cd0000          	call	printf
   592   001143 c1              	pop	bc
   592   001144 210000          	ld	hl,6	;const
   592   001147 39              	add	hl,sp
   592   001148 54              	ld	d,h
   592   001149 5d              	ld	e,l
   592   00114a af              	xor	a
   592   00114b 12              	ld	(de),a
   592   00114c 210000          	ld	hl,i_1+410
   592   00114f e5              	push	hl
   592   001150 3e00            	ld	a,1
   592   001152 cd0000          	call	printf
   592   001155 c1              	pop	bc
   592   001156 210000          	ld	hl,2	;const
   592   001159 39              	add	hl,sp
   592   00115a e5              	push	hl
   592   00115b cd0000          	call	_getint
   592   00115e d1              	pop	de
   592   00115f cd0000          	call	l_pint
   592   001162 210000          	ld	hl,i_1+423
   592   001165 e5              	push	hl
   592   001166 3e00            	ld	a,1
   592   001168 cd0000          	call	printf
   592   00116b c1              	pop	bc
   592   00116c 210000          	ld	hl,4	;const
   592   00116f 39              	add	hl,sp
   592   001170 e5              	push	hl
   592   001171 cd0000          	call	_getint
   592   001174 d1              	pop	de
   592   001175 cd0000          	call	l_pint
   592   001178 c1              	pop	bc
   592   001179 e1              	pop	hl
   592   00117a e5              	push	hl
   592   00117b c5              	push	bc
   592   00117c 7c              	ld	a,h
   592   00117d b5              	or	l
   592   00117e 2000            	jr	nz,ASMPC+3
   592   001180 37              	scf
   592   001181 d20000          	jp	nc,i_22	;
   592   001184 210000          	ld	hl,4	;const
   592   001187 39              	add	hl,sp
   592   001188 cd0000          	call	l_gint	;
   592   00118b 7c              	ld	a,h
   592   00118c b5              	or	l
   592   00118d 2000            	jr	nz,ASMPC+3
   592   00118f 37              	scf
   592   001190 d20000          	jp	nc,i_22	;
   592                          .i_23_i_22
   592   001193 210000          	ld	hl,0	;const
   592   001196 c1              	pop	bc
   592   001197 e5              	push	hl
   592                          .i_21
   592   001198 210000          	ld	hl,43	;const
   592   00119b e5              	push	hl
   592   00119c cd0000          	call	_esp0_outbyte
   592   00119f c1              	pop	bc
   592   0011a0 210000          	ld	hl,2	;const
   592   0011a3 39              	add	hl,sp
   592   0011a4 e5              	push	hl
   592   0011a5 210000          	ld	hl,5	;const
   592   0011a8 e5              	push	hl
   592   0011a9 cd0000          	call	_esp0_outstruct
   592   0011ac c1              	pop	bc
   592   0011ad c1              	pop	bc
   592   0011ae c30000          	jp	i_19	;EOS
   592                          .i_20
   592   0011b1 33              	inc	sp
   592   0011b2 c1              	pop	bc
   592   0011b3 c1              	pop	bc
   592   0011b4 c1              	pop	bc
   592   0011b5 c9              	ret
   592                          
   592                          
   592                          	C_LINE	616,"testesp.c::set_sprite_location_test::0::33"
testesp.c::set_sprite_location_test::0::33:
   616                          
   616                          ; Function set_sprite_visibility_test flags 0x00000200 __smallc
   616                          ; int set_sprite_visibility_test()
   616                          	C_LINE	617,"testesp.c::set_sprite_visibility_test::0::33"
testesp.c::set_sprite_visibility_test::0::33:
   617                          ._set_sprite_visibility_test
   617   0011b6 c5              	push	bc
   617   0011b7 210000          	ld	hl,i_1+24
   617   0011ba e5              	push	hl
   617   0011bb 3e00            	ld	a,1
   617   0011bd cd0000          	call	printf
   617   0011c0 210000          	ld	hl,i_1+36
   617   0011c3 e3              	ex	(sp),hl
   617   0011c4 cd0000          	call	_printcentered
   617   0011c7 c1              	pop	bc
   617   0011c8 210000          	ld	hl,i_1+158
   617   0011cb e5              	push	hl
   617   0011cc cd0000          	call	puts
   617   0011cf 210000          	ld	hl,i_1+1926
   617   0011d2 e3              	ex	(sp),hl
   617   0011d3 cd0000          	call	_printcentered
   617   0011d6 c1              	pop	bc
   617   0011d7 210000          	ld	hl,i_1+279
   617   0011da e5              	push	hl
   617   0011db cd0000          	call	puts
   617   0011de c1              	pop	bc
   617   0011df 210000          	ld	hl,i_1+1955
   617   0011e2 e5              	push	hl
   617   0011e3 3e00            	ld	a,1
   617   0011e5 cd0000          	call	printf
   617   0011e8 c1              	pop	bc
   617   0011e9 210000          	ld	hl,i_1+1978
   617   0011ec e5              	push	hl
   617   0011ed 3e00            	ld	a,1
   617   0011ef cd0000          	call	printf
   617   0011f2 c1              	pop	bc
   617   0011f3 210000          	ld	hl,i_1+2001
   617   0011f6 e5              	push	hl
   617   0011f7 3e00            	ld	a,1
   617   0011f9 cd0000          	call	printf
   617   0011fc c1              	pop	bc
   617   0011fd 210000          	ld	hl,1	;const
   617   001200 39              	add	hl,sp
   617   001201 e5              	push	hl
   617   001202 cd0000          	call	_getbyte
   617   001205 7d              	ld	a,l
   617   001206 d1              	pop	de
   617   001207 12              	ld	(de),a
   617   001208 210000          	ld	hl,i_1+2014
   617   00120b e5              	push	hl
   617   00120c 3e00            	ld	a,1
   617   00120e cd0000          	call	printf
   617   001211 c1              	pop	bc
   617   001212 210000          	ld	hl,0	;const
   617   001215 39              	add	hl,sp
   617   001216 e5              	push	hl
   617   001217 cd0000          	call	_getbyte
   617   00121a 7d              	ld	a,l
   617   00121b d1              	pop	de
   617   00121c 12              	ld	(de),a
   617   00121d 210000          	ld	hl,44	;const
   617   001220 e5              	push	hl
   617   001221 cd0000          	call	_esp0_outbyte
   617   001224 c1              	pop	bc
   617   001225 210000          	ld	hl,1	;const
   617   001228 39              	add	hl,sp
   617   001229 cd0000          	call	l_gchar
   617   00122c e5              	push	hl
   617   00122d cd0000          	call	_esp0_outbyte
   617   001230 c1              	pop	bc
   617   001231 210000          	ld	hl,0	;const
   617   001234 39              	add	hl,sp
   617   001235 cd0000          	call	l_gchar
   617   001238 e5              	push	hl
   617   001239 cd0000          	call	_esp0_outbyte
   617   00123c c1              	pop	bc
   617   00123d c1              	pop	bc
   617   00123e c9              	ret
   617                          
   617                          
   617                          	C_LINE	637,"testesp.c::set_sprite_visibility_test::0::34"
testesp.c::set_sprite_visibility_test::0::34:
   637                          
   637                          ; Function set_wifi_ssid_test flags 0x00000200 __smallc
   637                          ; int set_wifi_ssid_test()
   637                          	C_LINE	638,"testesp.c::set_wifi_ssid_test::0::34"
testesp.c::set_wifi_ssid_test::0::34:
   638                          ._set_wifi_ssid_test
   638   00123f 210000          	ld	hl,65472	;const
   638   001242 39              	add	hl,sp
   638   001243 f9              	ld	sp,hl
   638   001244 e5              	push	hl
   638   001245 210000          	ld	hl,i_1+24
   638   001248 e5              	push	hl
   638   001249 3e00            	ld	a,1
   638   00124b cd0000          	call	printf
   638   00124e 210000          	ld	hl,i_1+36
   638   001251 e3              	ex	(sp),hl
   638   001252 cd0000          	call	_printcentered
   638   001255 c1              	pop	bc
   638   001256 210000          	ld	hl,i_1+158
   638   001259 e5              	push	hl
   638   00125a cd0000          	call	puts
   638   00125d 210000          	ld	hl,i_1+2027
   638   001260 e3              	ex	(sp),hl
   638   001261 cd0000          	call	_printcentered
   638   001264 c1              	pop	bc
   638   001265 210000          	ld	hl,i_1+279
   638   001268 e5              	push	hl
   638   001269 cd0000          	call	puts
   638   00126c c1              	pop	bc
   638   00126d 210000          	ld	hl,i_1+2041
   638   001270 e5              	push	hl
   638   001271 3e00            	ld	a,1
   638   001273 cd0000          	call	printf
   638   001276 c1              	pop	bc
   638   001277 210000          	ld	hl,i_1+410
   638   00127a e5              	push	hl
   638   00127b 3e00            	ld	a,1
   638   00127d cd0000          	call	printf
   638   001280 c1              	pop	bc
   638   001281 210000          	ld	hl,2	;const
   638   001284 39              	add	hl,sp
   638   001285 e5              	push	hl
   638   001286 cd0000          	call	_getstring
   638   001289 210000          	ld	hl,1	;const
   638   00128c e3              	ex	(sp),hl
   638   00128d cd0000          	call	_esp1_outbyte
   638   001290 c1              	pop	bc
   638                          .i_24
   638   001291 e1              	pop	hl
   638   001292 e5              	push	hl
   638   001293 7e              	ld	a,(hl)
   638   001294 a7              	and	a
   638   001295 ca0000          	jp	z,i_25	;
   638   001298 e1              	pop	hl
   638   001299 23              	inc	hl
   638   00129a e5              	push	hl
   638   00129b 2b              	dec	hl
   638   00129c cd0000          	call	l_gchar
   638   00129f e5              	push	hl
   638   0012a0 cd0000          	call	_esp1_outbyte
   638   0012a3 c1              	pop	bc
   638   0012a4 c30000          	jp	i_24	;EOS
   638                          .i_25
   638   0012a7 210000          	ld	hl,0	;const
   638   0012aa e5              	push	hl
   638   0012ab cd0000          	call	_esp1_outbyte
   638   0012ae c1              	pop	bc
   638   0012af 210000          	ld	hl,66	;const
   638   0012b2 39              	add	hl,sp
   638   0012b3 f9              	ld	sp,hl
   638   0012b4 c9              	ret
   638                          
   638                          
   638                          	C_LINE	655,"testesp.c::set_wifi_ssid_test::0::35"
testesp.c::set_wifi_ssid_test::0::35:
   655                          
   655                          ; Function set_wifi_password_test flags 0x00000200 __smallc
   655                          ; int set_wifi_password_test()
   655                          	C_LINE	656,"testesp.c::set_wifi_password_test::0::35"
testesp.c::set_wifi_password_test::0::35:
   656                          ._set_wifi_password_test
   656   0012b5 210000          	ld	hl,65472	;const
   656   0012b8 39              	add	hl,sp
   656   0012b9 f9              	ld	sp,hl
   656   0012ba e5              	push	hl
   656   0012bb 210000          	ld	hl,i_1+24
   656   0012be e5              	push	hl
   656   0012bf 3e00            	ld	a,1
   656   0012c1 cd0000          	call	printf
   656   0012c4 210000          	ld	hl,i_1+36
   656   0012c7 e3              	ex	(sp),hl
   656   0012c8 cd0000          	call	_printcentered
   656   0012cb c1              	pop	bc
   656   0012cc 210000          	ld	hl,i_1+158
   656   0012cf e5              	push	hl
   656   0012d0 cd0000          	call	puts
   656   0012d3 210000          	ld	hl,i_1+2062
   656   0012d6 e3              	ex	(sp),hl
   656   0012d7 cd0000          	call	_printcentered
   656   0012da c1              	pop	bc
   656   0012db 210000          	ld	hl,i_1+279
   656   0012de e5              	push	hl
   656   0012df cd0000          	call	puts
   656   0012e2 c1              	pop	bc
   656   0012e3 210000          	ld	hl,i_1+2080
   656   0012e6 e5              	push	hl
   656   0012e7 3e00            	ld	a,1
   656   0012e9 cd0000          	call	printf
   656   0012ec c1              	pop	bc
   656   0012ed 210000          	ld	hl,i_1+2105
   656   0012f0 e5              	push	hl
   656   0012f1 3e00            	ld	a,1
   656   0012f3 cd0000          	call	printf
   656   0012f6 c1              	pop	bc
   656   0012f7 210000          	ld	hl,2	;const
   656   0012fa 39              	add	hl,sp
   656   0012fb e5              	push	hl
   656   0012fc cd0000          	call	_getstring
   656   0012ff 210000          	ld	hl,2	;const
   656   001302 e3              	ex	(sp),hl
   656   001303 cd0000          	call	_esp1_outbyte
   656   001306 c1              	pop	bc
   656                          .i_26
   656   001307 e1              	pop	hl
   656   001308 e5              	push	hl
   656   001309 7e              	ld	a,(hl)
   656   00130a a7              	and	a
   656   00130b ca0000          	jp	z,i_27	;
   656   00130e e1              	pop	hl
   656   00130f 23              	inc	hl
   656   001310 e5              	push	hl
   656   001311 2b              	dec	hl
   656   001312 cd0000          	call	l_gchar
   656   001315 e5              	push	hl
   656   001316 cd0000          	call	_esp1_outbyte
   656   001319 c1              	pop	bc
   656   00131a c30000          	jp	i_26	;EOS
   656                          .i_27
   656   00131d 210000          	ld	hl,0	;const
   656   001320 e5              	push	hl
   656   001321 cd0000          	call	_esp1_outbyte
   656   001324 c1              	pop	bc
   656   001325 210000          	ld	hl,66	;const
   656   001328 39              	add	hl,sp
   656   001329 f9              	ld	sp,hl
   656   00132a c9              	ret
   656                          
   656                          
   656                          	C_LINE	672,"testesp.c::set_wifi_password_test::0::36"
testesp.c::set_wifi_password_test::0::36:
   672                          
   672                          ; Function connect_to_wifi_test flags 0x00000200 __smallc
   672                          ; int connect_to_wifi_test()
   672                          	C_LINE	673,"testesp.c::connect_to_wifi_test::0::36"
testesp.c::connect_to_wifi_test::0::36:
   673                          ._connect_to_wifi_test
   673   00132b 210000          	ld	hl,3	;const
   673   00132e e5              	push	hl
   673   00132f cd0000          	call	_esp1_outbyte
   673   001332 c1              	pop	bc
   673   001333 c9              	ret
   673                          
   673                          
   673                          	C_LINE	676,"testesp.c::connect_to_wifi_test::0::37"
testesp.c::connect_to_wifi_test::0::37:
   676                          
   676                          ; Function get_wifi_status_test flags 0x00000200 __smallc
   676                          ; int get_wifi_status_test()
   676                          	C_LINE	677,"testesp.c::get_wifi_status_test::0::37"
testesp.c::get_wifi_status_test::0::37:
   677                          ._get_wifi_status_test
   677   001334 3b              	dec	sp
   677   001335 210000          	ld	hl,4	;const
   677   001338 e5              	push	hl
   677   001339 cd0000          	call	_esp1_outbyte
   677   00133c c1              	pop	bc
   677   00133d 210000          	ld	hl,0	;const
   677   001340 39              	add	hl,sp
   677   001341 e5              	push	hl
   677   001342 cd0000          	call	_esp1_inbytewait
   677   001345 7d              	ld	a,l
   677   001346 d1              	pop	de
   677   001347 12              	ld	(de),a
   677   001348 210000          	ld	hl,i_1+2118
   677   00134b e5              	push	hl
   677   00134c cd0000          	call	_printmessage
   677   00134f c1              	pop	bc
   677   001350 210000          	ld	hl,i_1+2131
   677   001353 e5              	push	hl
   677   001354 210000          	ld	hl,2	;const
   677   001357 39              	add	hl,sp
   677   001358 cd0000          	call	l_gchar
   677   00135b e5              	push	hl
   677   00135c 3e00            	ld	a,2
   677   00135e cd0000          	call	printf
   677   001361 c1              	pop	bc
   677   001362 c1              	pop	bc
   677   001363 210000          	ld	hl,i_1+279
   677   001366 e5              	push	hl
   677   001367 3e00            	ld	a,1
   677   001369 cd0000          	call	printf
   677   00136c c1              	pop	bc
   677   00136d 33              	inc	sp
   677   00136e c9              	ret
   677                          
   677                          
   677                          	C_LINE	685,"testesp.c::get_wifi_status_test::0::38"
testesp.c::get_wifi_status_test::0::38:
   685                          
   685                          ; Function get_wifi_signal_strength_test flags 0x00000200 __smallc
   685                          ; int get_wifi_signal_strength_test()
   685                          	C_LINE	686,"testesp.c::get_wifi_signal_strength_test::0::38"
testesp.c::get_wifi_signal_strength_test::0::38:
   686                          ._get_wifi_signal_strength_test
   686   00136f c5              	push	bc
   686   001370 210000          	ld	hl,5	;const
   686   001373 e5              	push	hl
   686   001374 cd0000          	call	_esp1_outbyte
   686   001377 c1              	pop	bc
   686   001378 cd0000          	call	_esp1_inbytewait
   686   00137b c1              	pop	bc
   686   00137c e5              	push	hl
   686   00137d 210000          	ld	hl,i_1+2147
   686   001380 e5              	push	hl
   686   001381 cd0000          	call	_printmessage
   686   001384 c1              	pop	bc
   686   001385 210000          	ld	hl,i_1+2131
   686   001388 d1              	pop	de
   686   001389 d5              	push	de
   686   00138a e5              	push	hl
   686   00138b eb              	ex	de,hl
   686   00138c e5              	push	hl
   686   00138d 3e00            	ld	a,2
   686   00138f cd0000          	call	printf
   686   001392 c1              	pop	bc
   686   001393 c1              	pop	bc
   686   001394 210000          	ld	hl,i_1+279
   686   001397 e5              	push	hl
   686   001398 3e00            	ld	a,1
   686   00139a cd0000          	call	printf
   686   00139d c1              	pop	bc
   686   00139e c1              	pop	bc
   686   00139f c9              	ret
   686                          
   686                          
   686                          	C_LINE	694,"testesp.c::get_wifi_signal_strength_test::0::39"
testesp.c::get_wifi_signal_strength_test::0::39:
   694                          
   694                          ; Function get_ip_address_test flags 0x00000200 __smallc
   694                          ; int get_ip_address_test()
   694                          	C_LINE	695,"testesp.c::get_ip_address_test::0::39"
testesp.c::get_ip_address_test::0::39:
   695                          ._get_ip_address_test
   695   0013a0 c5              	push	bc
   695   0013a1 c5              	push	bc
   695   0013a2 c5              	push	bc
   695   0013a3 c5              	push	bc
   695   0013a4 210000          	ld	hl,12	;const
   695   0013a7 e5              	push	hl
   695   0013a8 cd0000          	call	_esp1_outbyte
   695   0013ab c1              	pop	bc
   695   0013ac 210000          	ld	hl,6	;const
   695   0013af 39              	add	hl,sp
   695   0013b0 e5              	push	hl
   695   0013b1 cd0000          	call	_esp1_inbytewait
   695   0013b4 d1              	pop	de
   695   0013b5 cd0000          	call	l_pint
   695   0013b8 210000          	ld	hl,4	;const
   695   0013bb 39              	add	hl,sp
   695   0013bc e5              	push	hl
   695   0013bd cd0000          	call	_esp1_inbytewait
   695   0013c0 d1              	pop	de
   695   0013c1 cd0000          	call	l_pint
   695   0013c4 cd0000          	call	_esp1_inbytewait
   695   0013c7 d1              	pop	de
   695   0013c8 c1              	pop	bc
   695   0013c9 e5              	push	hl
   695   0013ca d5              	push	de
   695   0013cb cd0000          	call	_esp1_inbytewait
   695   0013ce c1              	pop	bc
   695   0013cf e5              	push	hl
   695   0013d0 210000          	ld	hl,i_1+2169
   695   0013d3 e5              	push	hl
   695   0013d4 cd0000          	call	_printmessage
   695   0013d7 c1              	pop	bc
   695   0013d8 210000          	ld	hl,i_1+2181
   695   0013db e5              	push	hl
   695   0013dc 210000          	ld	hl,8	;const
   695   0013df cd0000          	call	l_g2intspsp	;
   695   0013e2 210000          	ld	hl,8	;const
   695   0013e5 cd0000          	call	l_gintspsp	;
   695   0013e8 210000          	ld	hl,8	;const
   695   0013eb 39              	add	hl,sp
   695   0013ec cd0000          	call	l_gint	;
   695   0013ef e5              	push	hl
   695   0013f0 3e00            	ld	a,5
   695   0013f2 cd0000          	call	printf
   695   0013f5 c1              	pop	bc
   695   0013f6 c1              	pop	bc
   695   0013f7 c1              	pop	bc
   695   0013f8 c1              	pop	bc
   695   0013f9 c1              	pop	bc
   695   0013fa 210000          	ld	hl,i_1+279
   695   0013fd e5              	push	hl
   695   0013fe 3e00            	ld	a,1
   695   001400 cd0000          	call	printf
   695   001403 c1              	pop	bc
   695   001404 c1              	pop	bc
   695   001405 c1              	pop	bc
   695   001406 c1              	pop	bc
   695   001407 c1              	pop	bc
   695   001408 c9              	ret
   695                          
   695                          
   695                          	C_LINE	706,"testesp.c::get_ip_address_test::0::40"
testesp.c::get_ip_address_test::0::40:
   706                          
   706                          ; Function get_subnet_mask_test flags 0x00000200 __smallc
   706                          ; int get_subnet_mask_test()
   706                          	C_LINE	707,"testesp.c::get_subnet_mask_test::0::40"
testesp.c::get_subnet_mask_test::0::40:
   707                          ._get_subnet_mask_test
   707   001409 c5              	push	bc
   707   00140a c5              	push	bc
   707   00140b c5              	push	bc
   707   00140c c5              	push	bc
   707   00140d 210000          	ld	hl,13	;const
   707   001410 e5              	push	hl
   707   001411 cd0000          	call	_esp1_outbyte
   707   001414 c1              	pop	bc
   707   001415 210600          	ld	hl,6	;const
   707   001418 39              	add	hl,sp
   707   001419 e5              	push	hl
   707   00141a cd0000          	call	_esp1_inbytewait
   707   00141d d1              	pop	de
   707   00141e cd0000          	call	l_pint
   707   001421 210400          	ld	hl,4	;const
   707   001424 39              	add	hl,sp
   707   001425 e5              	push	hl
   707   001426 cd0000          	call	_esp1_inbytewait
   707   001429 d1              	pop	de
   707   00142a cd0000          	call	l_pint
   707   00142d cd0000          	call	_esp1_inbytewait
   707   001430 d1              	pop	de
   707   001431 c1              	pop	bc
   707   001432 e5              	push	hl
   707   001433 d5              	push	de
   707   001434 cd0000          	call	_esp1_inbytewait
   707   001437 c1              	pop	bc
   707   001438 e5              	push	hl
   707   001439 219e08          	ld	hl,i_1+2206
   707   00143c e5              	push	hl
   707   00143d cd0000          	call	_printmessage
   707   001440 c1              	pop	bc
   707   001441 218508          	ld	hl,i_1+2181
   707   001444 e5              	push	hl
   707   001445 210800          	ld	hl,8	;const
   707   001448 cd0000          	call	l_g2intspsp	;
   707   00144b 210800          	ld	hl,8	;const
   707   00144e cd0000          	call	l_gintspsp	;
   707   001451 210800          	ld	hl,8	;const
   707   001454 39              	add	hl,sp
   707   001455 cd0000          	call	l_gint	;
   707   001458 e5              	push	hl
   707   001459 3e05            	ld	a,5
   707   00145b cd0000          	call	printf
   707   00145e c1              	pop	bc
   707   00145f c1              	pop	bc
   707   001460 c1              	pop	bc
   707   001461 c1              	pop	bc
   707   001462 c1              	pop	bc
   707   001463 211701          	ld	hl,i_1+279
   707   001466 e5              	push	hl
   707   001467 3e01            	ld	a,1
   707   001469 cd0000          	call	printf
   707   00146c c1              	pop	bc
   707   00146d c1              	pop	bc
   707   00146e c1              	pop	bc
   707   00146f c1              	pop	bc
   707   001470 c1              	pop	bc
   707   001471 c9              	ret
   707                          
   707                          
   707                          	C_LINE	718,"testesp.c::get_subnet_mask_test::0::41"
testesp.c::get_subnet_mask_test::0::41:
   718                          
   718                          ; Function get_gateway_test flags 0x00000200 __smallc
   718                          ; int get_gateway_test()
   718                          	C_LINE	719,"testesp.c::get_gateway_test::0::41"
testesp.c::get_gateway_test::0::41:
   719                          ._get_gateway_test
   719   001472 c5              	push	bc
   719   001473 c5              	push	bc
   719   001474 c5              	push	bc
   719   001475 c5              	push	bc
   719   001476 210e00          	ld	hl,14	;const
   719   001479 e5              	push	hl
   719   00147a cd0000          	call	_esp1_outbyte
   719   00147d c1              	pop	bc
   719   00147e 210600          	ld	hl,6	;const
   719   001481 39              	add	hl,sp
   719   001482 e5              	push	hl
   719   001483 cd0000          	call	_esp1_inbytewait
   719   001486 d1              	pop	de
   719   001487 cd0000          	call	l_pint
   719   00148a 210400          	ld	hl,4	;const
   719   00148d 39              	add	hl,sp
   719   00148e e5              	push	hl
   719   00148f cd0000          	call	_esp1_inbytewait
   719   001492 d1              	pop	de
   719   001493 cd0000          	call	l_pint
   719   001496 cd0000          	call	_esp1_inbytewait
   719   001499 d1              	pop	de
   719   00149a c1              	pop	bc
   719   00149b e5              	push	hl
   719   00149c d5              	push	de
   719   00149d cd0000          	call	_esp1_inbytewait
   719   0014a0 c1              	pop	bc
   719   0014a1 e5              	push	hl
   719   0014a2 21ab08          	ld	hl,i_1+2219
   719   0014a5 e5              	push	hl
   719   0014a6 cd0000          	call	_printmessage
   719   0014a9 c1              	pop	bc
   719   0014aa 218508          	ld	hl,i_1+2181
   719   0014ad e5              	push	hl
   719   0014ae 210800          	ld	hl,8	;const
   719   0014b1 cd0000          	call	l_g2intspsp	;
   719   0014b4 210800          	ld	hl,8	;const
   719   0014b7 cd0000          	call	l_gintspsp	;
   719   0014ba 210800          	ld	hl,8	;const
   719   0014bd 39              	add	hl,sp
   719   0014be cd0000          	call	l_gint	;
   719   0014c1 e5              	push	hl
   719   0014c2 3e05            	ld	a,5
   719   0014c4 cd0000          	call	printf
   719   0014c7 c1              	pop	bc
   719   0014c8 c1              	pop	bc
   719   0014c9 c1              	pop	bc
   719   0014ca c1              	pop	bc
   719   0014cb c1              	pop	bc
   719   0014cc 211701          	ld	hl,i_1+279
   719   0014cf e5              	push	hl
   719   0014d0 3e01            	ld	a,1
   719   0014d2 cd0000          	call	printf
   719   0014d5 c1              	pop	bc
   719   0014d6 c1              	pop	bc
   719   0014d7 c1              	pop	bc
   719   0014d8 c1              	pop	bc
   719   0014d9 c1              	pop	bc
   719   0014da c9              	ret
   719                          
   719                          
   719                          	C_LINE	730,"testesp.c::get_gateway_test::0::42"
testesp.c::get_gateway_test::0::42:
   730                          
   730                          ; Function get_primary_dns_test flags 0x00000200 __smallc
   730                          ; int get_primary_dns_test()
   730                          	C_LINE	731,"testesp.c::get_primary_dns_test::0::42"
testesp.c::get_primary_dns_test::0::42:
   731                          ._get_primary_dns_test
   731   0014db c5              	push	bc
   731   0014dc c5              	push	bc
   731   0014dd c5              	push	bc
   731   0014de c5              	push	bc
   731   0014df 210f00          	ld	hl,15	;const
   731   0014e2 e5              	push	hl
   731   0014e3 cd0000          	call	_esp1_outbyte
   731   0014e6 c1              	pop	bc
   731   0014e7 210600          	ld	hl,6	;const
   731   0014ea 39              	add	hl,sp
   731   0014eb e5              	push	hl
   731   0014ec cd0000          	call	_esp1_inbytewait
   731   0014ef d1              	pop	de
   731   0014f0 cd0000          	call	l_pint
   731   0014f3 210400          	ld	hl,4	;const
   731   0014f6 39              	add	hl,sp
   731   0014f7 e5              	push	hl
   731   0014f8 cd0000          	call	_esp1_inbytewait
   731   0014fb d1              	pop	de
   731   0014fc cd0000          	call	l_pint
   731   0014ff cd0000          	call	_esp1_inbytewait
   731   001502 d1              	pop	de
   731   001503 c1              	pop	bc
   731   001504 e5              	push	hl
   731   001505 d5              	push	de
   731   001506 cd0000          	call	_esp1_inbytewait
   731   001509 c1              	pop	bc
   731   00150a e5              	push	hl
   731   00150b 21b708          	ld	hl,i_1+2231
   731   00150e e5              	push	hl
   731   00150f cd0000          	call	_printmessage
   731   001512 c1              	pop	bc
   731   001513 21cc08          	ld	hl,i_1+2252
   731   001516 e5              	push	hl
   731   001517 210800          	ld	hl,8	;const
   731   00151a cd0000          	call	l_g2intspsp	;
   731   00151d 210800          	ld	hl,8	;const
   731   001520 cd0000          	call	l_gintspsp	;
   731   001523 210800          	ld	hl,8	;const
   731   001526 39              	add	hl,sp
   731   001527 cd0000          	call	l_gint	;
   731   00152a e5              	push	hl
   731   00152b 3e05            	ld	a,5
   731   00152d cd0000          	call	printf
   731   001530 c1              	pop	bc
   731   001531 c1              	pop	bc
   731   001532 c1              	pop	bc
   731   001533 c1              	pop	bc
   731   001534 c1              	pop	bc
   731   001535 211701          	ld	hl,i_1+279
   731   001538 e5              	push	hl
   731   001539 3e01            	ld	a,1
   731   00153b cd0000          	call	printf
   731   00153e c1              	pop	bc
   731   00153f c1              	pop	bc
   731   001540 c1              	pop	bc
   731   001541 c1              	pop	bc
   731   001542 c1              	pop	bc
   731   001543 c9              	ret
   731                          
   731                          
   731                          	C_LINE	742,"testesp.c::get_primary_dns_test::0::43"
testesp.c::get_primary_dns_test::0::43:
   742                          
   742                          ; Function get_secondary_dns_test flags 0x00000200 __smallc
   742                          ; int get_secondary_dns_test()
   742                          	C_LINE	743,"testesp.c::get_secondary_dns_test::0::43"
testesp.c::get_secondary_dns_test::0::43:
   743                          ._get_secondary_dns_test
   743   001544 c5              	push	bc
   743   001545 c5              	push	bc
   743   001546 c5              	push	bc
   743   001547 c5              	push	bc
   743   001548 211000          	ld	hl,16	;const
   743   00154b e5              	push	hl
   743   00154c cd0000          	call	_esp1_outbyte
   743   00154f c1              	pop	bc
   743   001550 210600          	ld	hl,6	;const
   743   001553 39              	add	hl,sp
   743   001554 e5              	push	hl
   743   001555 cd0000          	call	_esp1_inbytewait
   743   001558 d1              	pop	de
   743   001559 cd0000          	call	l_pint
   743   00155c 210400          	ld	hl,4	;const
   743   00155f 39              	add	hl,sp
   743   001560 e5              	push	hl
   743   001561 cd0000          	call	_esp1_inbytewait
   743   001564 d1              	pop	de
   743   001565 cd0000          	call	l_pint
   743   001568 cd0000          	call	_esp1_inbytewait
   743   00156b d1              	pop	de
   743   00156c c1              	pop	bc
   743   00156d e5              	push	hl
   743   00156e d5              	push	de
   743   00156f cd0000          	call	_esp1_inbytewait
   743   001572 c1              	pop	bc
   743   001573 e5              	push	hl
   743   001574 21e508          	ld	hl,i_1+2277
   743   001577 e5              	push	hl
   743   001578 cd0000          	call	_printmessage
   743   00157b c1              	pop	bc
   743   00157c 21cc08          	ld	hl,i_1+2252
   743   00157f e5              	push	hl
   743   001580 210800          	ld	hl,8	;const
   743   001583 cd0000          	call	l_g2intspsp	;
   743   001586 210800          	ld	hl,8	;const
   743   001589 cd0000          	call	l_gintspsp	;
   743   00158c 210800          	ld	hl,8	;const
   743   00158f 39              	add	hl,sp
   743   001590 cd0000          	call	l_gint	;
   743   001593 e5              	push	hl
   743   001594 3e05            	ld	a,5
   743   001596 cd0000          	call	printf
   743   001599 c1              	pop	bc
   743   00159a c1              	pop	bc
   743   00159b c1              	pop	bc
   743   00159c c1              	pop	bc
   743   00159d c1              	pop	bc
   743   00159e 211701          	ld	hl,i_1+279
   743   0015a1 e5              	push	hl
   743   0015a2 3e01            	ld	a,1
   743   0015a4 cd0000          	call	printf
   743   0015a7 c1              	pop	bc
   743   0015a8 c1              	pop	bc
   743   0015a9 c1              	pop	bc
   743   0015aa c1              	pop	bc
   743   0015ab c1              	pop	bc
   743   0015ac c9              	ret
   743                          
   743                          
   743                          	C_LINE	754,"testesp.c::get_secondary_dns_test::0::44"
testesp.c::get_secondary_dns_test::0::44:
   754                          
   754                          ; Function set_ip_address_test flags 0x00000200 __smallc
   754                          ; int set_ip_address_test()
   754                          	C_LINE	755,"testesp.c::set_ip_address_test::0::44"
testesp.c::set_ip_address_test::0::44:
   755                          ._set_ip_address_test
   755   0015ad c5              	push	bc
   755   0015ae c5              	push	bc
   755   0015af 211800          	ld	hl,i_1+24
   755   0015b2 e5              	push	hl
   755   0015b3 3e01            	ld	a,1
   755   0015b5 cd0000          	call	printf
   755   0015b8 212400          	ld	hl,i_1+36
   755   0015bb e3              	ex	(sp),hl
   755   0015bc cd0000          	call	_printcentered
   755   0015bf c1              	pop	bc
   755   0015c0 219e00          	ld	hl,i_1+158
   755   0015c3 e5              	push	hl
   755   0015c4 cd0000          	call	puts
   755   0015c7 21fc08          	ld	hl,i_1+2300
   755   0015ca e3              	ex	(sp),hl
   755   0015cb cd0000          	call	_printcentered
   755   0015ce c1              	pop	bc
   755   0015cf 211701          	ld	hl,i_1+279
   755   0015d2 e5              	push	hl
   755   0015d3 cd0000          	call	puts
   755   0015d6 c1              	pop	bc
   755   0015d7 211009          	ld	hl,i_1+2320
   755   0015da e5              	push	hl
   755   0015db 3e01            	ld	a,1
   755   0015dd cd0000          	call	printf
   755   0015e0 c1              	pop	bc
   755   0015e1 212909          	ld	hl,i_1+2345
   755   0015e4 e5              	push	hl
   755   0015e5 3e01            	ld	a,1
   755   0015e7 cd0000          	call	printf
   755   0015ea c1              	pop	bc
   755   0015eb 214209          	ld	hl,i_1+2370
   755   0015ee e5              	push	hl
   755   0015ef 3e01            	ld	a,1
   755   0015f1 cd0000          	call	printf
   755   0015f4 c1              	pop	bc
   755   0015f5 215b09          	ld	hl,i_1+2395
   755   0015f8 e5              	push	hl
   755   0015f9 3e01            	ld	a,1
   755   0015fb cd0000          	call	printf
   755   0015fe c1              	pop	bc
   755   0015ff 21d107          	ld	hl,i_1+2001
   755   001602 e5              	push	hl
   755   001603 3e01            	ld	a,1
   755   001605 cd0000          	call	printf
   755   001608 c1              	pop	bc
   755   001609 210300          	ld	hl,3	;const
   755   00160c 39              	add	hl,sp
   755   00160d e5              	push	hl
   755   00160e cd0000          	call	_getbyte
   755   001611 7d              	ld	a,l
   755   001612 d1              	pop	de
   755   001613 12              	ld	(de),a
   755   001614 21de07          	ld	hl,i_1+2014
   755   001617 e5              	push	hl
   755   001618 3e01            	ld	a,1
   755   00161a cd0000          	call	printf
   755   00161d c1              	pop	bc
   755   00161e 210200          	ld	hl,2	;const
   755   001621 39              	add	hl,sp
   755   001622 e5              	push	hl
   755   001623 cd0000          	call	_getbyte
   755   001626 7d              	ld	a,l
   755   001627 d1              	pop	de
   755   001628 12              	ld	(de),a
   755   001629 217409          	ld	hl,i_1+2420
   755   00162c e5              	push	hl
   755   00162d 3e01            	ld	a,1
   755   00162f cd0000          	call	printf
   755   001632 c1              	pop	bc
   755   001633 210100          	ld	hl,1	;const
   755   001636 39              	add	hl,sp
   755   001637 e5              	push	hl
   755   001638 cd0000          	call	_getbyte
   755   00163b 7d              	ld	a,l
   755   00163c d1              	pop	de
   755   00163d 12              	ld	(de),a
   755   00163e 218109          	ld	hl,i_1+2433
   755   001641 e5              	push	hl
   755   001642 3e01            	ld	a,1
   755   001644 cd0000          	call	printf
   755   001647 c1              	pop	bc
   755   001648 210000          	ld	hl,0	;const
   755   00164b 39              	add	hl,sp
   755   00164c e5              	push	hl
   755   00164d cd0000          	call	_getbyte
   755   001650 7d              	ld	a,l
   755   001651 d1              	pop	de
   755   001652 12              	ld	(de),a
   755   001653 211100          	ld	hl,17	;const
   755   001656 e5              	push	hl
   755   001657 cd0000          	call	_esp1_outbyte
   755   00165a c1              	pop	bc
   755   00165b 210300          	ld	hl,3	;const
   755   00165e 39              	add	hl,sp
   755   00165f cd0000          	call	l_gchar
   755   001662 e5              	push	hl
   755   001663 cd0000          	call	_esp1_outbyte
   755   001666 c1              	pop	bc
   755   001667 210200          	ld	hl,2	;const
   755   00166a 39              	add	hl,sp
   755   00166b cd0000          	call	l_gchar
   755   00166e e5              	push	hl
   755   00166f cd0000          	call	_esp1_outbyte
   755   001672 c1              	pop	bc
   755   001673 210100          	ld	hl,1	;const
   755   001676 39              	add	hl,sp
   755   001677 cd0000          	call	l_gchar
   755   00167a e5              	push	hl
   755   00167b cd0000          	call	_esp1_outbyte
   755   00167e c1              	pop	bc
   755   00167f 210000          	ld	hl,0	;const
   755   001682 39              	add	hl,sp
   755   001683 cd0000          	call	l_gchar
   755   001686 e5              	push	hl
   755   001687 cd0000          	call	_esp1_outbyte
   755   00168a c1              	pop	bc
   755   00168b c1              	pop	bc
   755   00168c c1              	pop	bc
   755   00168d c9              	ret
   755                          
   755                          
   755                          	C_LINE	780,"testesp.c::set_ip_address_test::0::45"
testesp.c::set_ip_address_test::0::45:
   780                          
   780                          ; Function set_subnet_mask_test flags 0x00000200 __smallc
   780                          ; int set_subnet_mask_test()
   780                          	C_LINE	781,"testesp.c::set_subnet_mask_test::0::45"
testesp.c::set_subnet_mask_test::0::45:
   781                          ._set_subnet_mask_test
   781   00168e c5              	push	bc
   781   00168f c5              	push	bc
   781   001690 211800          	ld	hl,i_1+24
   781   001693 e5              	push	hl
   781   001694 3e01            	ld	a,1
   781   001696 cd0000          	call	printf
   781   001699 212400          	ld	hl,i_1+36
   781   00169c e3              	ex	(sp),hl
   781   00169d cd0000          	call	_printcentered
   781   0016a0 c1              	pop	bc
   781   0016a1 219e00          	ld	hl,i_1+158
   781   0016a4 e5              	push	hl
   781   0016a5 cd0000          	call	puts
   781   0016a8 218e09          	ld	hl,i_1+2446
   781   0016ab e3              	ex	(sp),hl
   781   0016ac cd0000          	call	_printcentered
   781   0016af c1              	pop	bc
   781   0016b0 211701          	ld	hl,i_1+279
   781   0016b3 e5              	push	hl
   781   0016b4 cd0000          	call	puts
   781   0016b7 c1              	pop	bc
   781   0016b8 21a609          	ld	hl,i_1+2470
   781   0016bb e5              	push	hl
   781   0016bc 3e01            	ld	a,1
   781   0016be cd0000          	call	printf
   781   0016c1 c1              	pop	bc
   781   0016c2 21bf09          	ld	hl,i_1+2495
   781   0016c5 e5              	push	hl
   781   0016c6 3e01            	ld	a,1
   781   0016c8 cd0000          	call	printf
   781   0016cb c1              	pop	bc
   781   0016cc 21d809          	ld	hl,i_1+2520
   781   0016cf e5              	push	hl
   781   0016d0 3e01            	ld	a,1
   781   0016d2 cd0000          	call	printf
   781   0016d5 c1              	pop	bc
   781   0016d6 21f109          	ld	hl,i_1+2545
   781   0016d9 e5              	push	hl
   781   0016da 3e01            	ld	a,1
   781   0016dc cd0000          	call	printf
   781   0016df c1              	pop	bc
   781   0016e0 21d107          	ld	hl,i_1+2001
   781   0016e3 e5              	push	hl
   781   0016e4 3e01            	ld	a,1
   781   0016e6 cd0000          	call	printf
   781   0016e9 c1              	pop	bc
   781   0016ea 210300          	ld	hl,3	;const
   781   0016ed 39              	add	hl,sp
   781   0016ee e5              	push	hl
   781   0016ef cd0000          	call	_getbyte
   781   0016f2 7d              	ld	a,l
   781   0016f3 d1              	pop	de
   781   0016f4 12              	ld	(de),a
   781   0016f5 21de07          	ld	hl,i_1+2014
   781   0016f8 e5              	push	hl
   781   0016f9 3e01            	ld	a,1
   781   0016fb cd0000          	call	printf
   781   0016fe c1              	pop	bc
   781   0016ff 210200          	ld	hl,2	;const
   781   001702 39              	add	hl,sp
   781   001703 e5              	push	hl
   781   001704 cd0000          	call	_getbyte
   781   001707 7d              	ld	a,l
   781   001708 d1              	pop	de
   781   001709 12              	ld	(de),a
   781   00170a 217409          	ld	hl,i_1+2420
   781   00170d e5              	push	hl
   781   00170e 3e01            	ld	a,1
   781   001710 cd0000          	call	printf
   781   001713 c1              	pop	bc
   781   001714 210100          	ld	hl,1	;const
   781   001717 39              	add	hl,sp
   781   001718 e5              	push	hl
   781   001719 cd0000          	call	_getbyte
   781   00171c 7d              	ld	a,l
   781   00171d d1              	pop	de
   781   00171e 12              	ld	(de),a
   781   00171f 218109          	ld	hl,i_1+2433
   781   001722 e5              	push	hl
   781   001723 3e01            	ld	a,1
   781   001725 cd0000          	call	printf
   781   001728 c1              	pop	bc
   781   001729 210000          	ld	hl,0	;const
   781   00172c 39              	add	hl,sp
   781   00172d e5              	push	hl
   781   00172e cd0000          	call	_getbyte
   781   001731 7d              	ld	a,l
   781   001732 d1              	pop	de
   781   001733 12              	ld	(de),a
   781   001734 211200          	ld	hl,18	;const
   781   001737 e5              	push	hl
   781   001738 cd0000          	call	_esp1_outbyte
   781   00173b c1              	pop	bc
   781   00173c 210300          	ld	hl,3	;const
   781   00173f 39              	add	hl,sp
   781   001740 cd0000          	call	l_gchar
   781   001743 e5              	push	hl
   781   001744 cd0000          	call	_esp1_outbyte
   781   001747 c1              	pop	bc
   781   001748 210200          	ld	hl,2	;const
   781   00174b 39              	add	hl,sp
   781   00174c cd0000          	call	l_gchar
   781   00174f e5              	push	hl
   781   001750 cd0000          	call	_esp1_outbyte
   781   001753 c1              	pop	bc
   781   001754 210100          	ld	hl,1	;const
   781   001757 39              	add	hl,sp
   781   001758 cd0000          	call	l_gchar
   781   00175b e5              	push	hl
   781   00175c cd0000          	call	_esp1_outbyte
   781   00175f c1              	pop	bc
   781   001760 210000          	ld	hl,0	;const
   781   001763 39              	add	hl,sp
   781   001764 cd0000          	call	l_gchar
   781   001767 e5              	push	hl
   781   001768 cd0000          	call	_esp1_outbyte
   781   00176b c1              	pop	bc
   781   00176c c1              	pop	bc
   781   00176d c1              	pop	bc
   781   00176e c9              	ret
   781                          
   781                          
   781                          	C_LINE	806,"testesp.c::set_subnet_mask_test::0::46"
testesp.c::set_subnet_mask_test::0::46:
   806                          
   806                          ; Function set_gateway_test flags 0x00000200 __smallc
   806                          ; int set_gateway_test()
   806                          	C_LINE	807,"testesp.c::set_gateway_test::0::46"
testesp.c::set_gateway_test::0::46:
   807                          ._set_gateway_test
   807   00176f c5              	push	bc
   807   001770 c5              	push	bc
   807   001771 211800          	ld	hl,i_1+24
   807   001774 e5              	push	hl
   807   001775 3e01            	ld	a,1
   807   001777 cd0000          	call	printf
   807   00177a 212400          	ld	hl,i_1+36
   807   00177d e3              	ex	(sp),hl
   807   00177e cd0000          	call	_printcentered
   807   001781 c1              	pop	bc
   807   001782 219e00          	ld	hl,i_1+158
   807   001785 e5              	push	hl
   807   001786 cd0000          	call	puts
   807   001789 210a0a          	ld	hl,i_1+2570
   807   00178c e3              	ex	(sp),hl
   807   00178d cd0000          	call	_printcentered
   807   001790 c1              	pop	bc
   807   001791 211701          	ld	hl,i_1+279
   807   001794 e5              	push	hl
   807   001795 cd0000          	call	puts
   807   001798 c1              	pop	bc
   807   001799 21230a          	ld	hl,i_1+2595
   807   00179c e5              	push	hl
   807   00179d 3e01            	ld	a,1
   807   00179f cd0000          	call	printf
   807   0017a2 c1              	pop	bc
   807   0017a3 213d0a          	ld	hl,i_1+2621
   807   0017a6 e5              	push	hl
   807   0017a7 3e01            	ld	a,1
   807   0017a9 cd0000          	call	printf
   807   0017ac c1              	pop	bc
   807   0017ad 21570a          	ld	hl,i_1+2647
   807   0017b0 e5              	push	hl
   807   0017b1 3e01            	ld	a,1
   807   0017b3 cd0000          	call	printf
   807   0017b6 c1              	pop	bc
   807   0017b7 21710a          	ld	hl,i_1+2673
   807   0017ba e5              	push	hl
   807   0017bb 3e01            	ld	a,1
   807   0017bd cd0000          	call	printf
   807   0017c0 c1              	pop	bc
   807   0017c1 21d107          	ld	hl,i_1+2001
   807   0017c4 e5              	push	hl
   807   0017c5 3e01            	ld	a,1
   807   0017c7 cd0000          	call	printf
   807   0017ca c1              	pop	bc
   807   0017cb 210300          	ld	hl,3	;const
   807   0017ce 39              	add	hl,sp
   807   0017cf e5              	push	hl
   807   0017d0 cd0000          	call	_getbyte
   807   0017d3 7d              	ld	a,l
   807   0017d4 d1              	pop	de
   807   0017d5 12              	ld	(de),a
   807   0017d6 21de07          	ld	hl,i_1+2014
   807   0017d9 e5              	push	hl
   807   0017da 3e01            	ld	a,1
   807   0017dc cd0000          	call	printf
   807   0017df c1              	pop	bc
   807   0017e0 210200          	ld	hl,2	;const
   807   0017e3 39              	add	hl,sp
   807   0017e4 e5              	push	hl
   807   0017e5 cd0000          	call	_getbyte
   807   0017e8 7d              	ld	a,l
   807   0017e9 d1              	pop	de
   807   0017ea 12              	ld	(de),a
   807   0017eb 217409          	ld	hl,i_1+2420
   807   0017ee e5              	push	hl
   807   0017ef 3e01            	ld	a,1
   807   0017f1 cd0000          	call	printf
   807   0017f4 c1              	pop	bc
   807   0017f5 210100          	ld	hl,1	;const
   807   0017f8 39              	add	hl,sp
   807   0017f9 e5              	push	hl
   807   0017fa cd0000          	call	_getbyte
   807   0017fd 7d              	ld	a,l
   807   0017fe d1              	pop	de
   807   0017ff 12              	ld	(de),a
   807   001800 218109          	ld	hl,i_1+2433
   807   001803 e5              	push	hl
   807   001804 3e01            	ld	a,1
   807   001806 cd0000          	call	printf
   807   001809 c1              	pop	bc
   807   00180a 210000          	ld	hl,0	;const
   807   00180d 39              	add	hl,sp
   807   00180e e5              	push	hl
   807   00180f cd0000          	call	_getbyte
   807   001812 7d              	ld	a,l
   807   001813 d1              	pop	de
   807   001814 12              	ld	(de),a
   807   001815 211300          	ld	hl,19	;const
   807   001818 e5              	push	hl
   807   001819 cd0000          	call	_esp1_outbyte
   807   00181c c1              	pop	bc
   807   00181d 210300          	ld	hl,3	;const
   807   001820 39              	add	hl,sp
   807   001821 cd0000          	call	l_gchar
   807   001824 e5              	push	hl
   807   001825 cd0000          	call	_esp1_outbyte
   807   001828 c1              	pop	bc
   807   001829 210200          	ld	hl,2	;const
   807   00182c 39              	add	hl,sp
   807   00182d cd0000          	call	l_gchar
   807   001830 e5              	push	hl
   807   001831 cd0000          	call	_esp1_outbyte
   807   001834 c1              	pop	bc
   807   001835 210100          	ld	hl,1	;const
   807   001838 39              	add	hl,sp
   807   001839 cd0000          	call	l_gchar
   807   00183c e5              	push	hl
   807   00183d cd0000          	call	_esp1_outbyte
   807   001840 c1              	pop	bc
   807   001841 210000          	ld	hl,0	;const
   807   001844 39              	add	hl,sp
   807   001845 cd0000          	call	l_gchar
   807   001848 e5              	push	hl
   807   001849 cd0000          	call	_esp1_outbyte
   807   00184c c1              	pop	bc
   807   00184d c1              	pop	bc
   807   00184e c1              	pop	bc
   807   00184f c9              	ret
   807                          
   807                          
   807                          	C_LINE	832,"testesp.c::set_gateway_test::0::47"
testesp.c::set_gateway_test::0::47:
   832                          
   832                          ; Function set_primary_dns_test flags 0x00000200 __smallc
   832                          ; int set_primary_dns_test()
   832                          	C_LINE	833,"testesp.c::set_primary_dns_test::0::47"
testesp.c::set_primary_dns_test::0::47:
   833                          ._set_primary_dns_test
   833   001850 c5              	push	bc
   833   001851 c5              	push	bc
   833   001852 211800          	ld	hl,i_1+24
   833   001855 e5              	push	hl
   833   001856 3e01            	ld	a,1
   833   001858 cd0000          	call	printf
   833   00185b 212400          	ld	hl,i_1+36
   833   00185e e3              	ex	(sp),hl
   833   00185f cd0000          	call	_printcentered
   833   001862 c1              	pop	bc
   833   001863 219e00          	ld	hl,i_1+158
   833   001866 e5              	push	hl
   833   001867 cd0000          	call	puts
   833   00186a 218b0a          	ld	hl,i_1+2699
   833   00186d e3              	ex	(sp),hl
   833   00186e cd0000          	call	_printcentered
   833   001871 c1              	pop	bc
   833   001872 211701          	ld	hl,i_1+279
   833   001875 e5              	push	hl
   833   001876 cd0000          	call	puts
   833   001879 c1              	pop	bc
   833   00187a 21a80a          	ld	hl,i_1+2728
   833   00187d e5              	push	hl
   833   00187e 3e01            	ld	a,1
   833   001880 cd0000          	call	printf
   833   001883 c1              	pop	bc
   833   001884 21c20a          	ld	hl,i_1+2754
   833   001887 e5              	push	hl
   833   001888 3e01            	ld	a,1
   833   00188a cd0000          	call	printf
   833   00188d c1              	pop	bc
   833   00188e 21dc0a          	ld	hl,i_1+2780
   833   001891 e5              	push	hl
   833   001892 3e01            	ld	a,1
   833   001894 cd0000          	call	printf
   833   001897 c1              	pop	bc
   833   001898 21f60a          	ld	hl,i_1+2806
   833   00189b e5              	push	hl
   833   00189c 3e01            	ld	a,1
   833   00189e cd0000          	call	printf
   833   0018a1 c1              	pop	bc
   833   0018a2 21d107          	ld	hl,i_1+2001
   833   0018a5 e5              	push	hl
   833   0018a6 3e01            	ld	a,1
   833   0018a8 cd0000          	call	printf
   833   0018ab c1              	pop	bc
   833   0018ac 210300          	ld	hl,3	;const
   833   0018af 39              	add	hl,sp
   833   0018b0 e5              	push	hl
   833   0018b1 cd0000          	call	_getbyte
   833   0018b4 7d              	ld	a,l
   833   0018b5 d1              	pop	de
   833   0018b6 12              	ld	(de),a
   833   0018b7 21de07          	ld	hl,i_1+2014
   833   0018ba e5              	push	hl
   833   0018bb 3e01            	ld	a,1
   833   0018bd cd0000          	call	printf
   833   0018c0 c1              	pop	bc
   833   0018c1 210200          	ld	hl,2	;const
   833   0018c4 39              	add	hl,sp
   833   0018c5 e5              	push	hl
   833   0018c6 cd0000          	call	_getbyte
   833   0018c9 7d              	ld	a,l
   833   0018ca d1              	pop	de
   833   0018cb 12              	ld	(de),a
   833   0018cc 217409          	ld	hl,i_1+2420
   833   0018cf e5              	push	hl
   833   0018d0 3e01            	ld	a,1
   833   0018d2 cd0000          	call	printf
   833   0018d5 c1              	pop	bc
   833   0018d6 210100          	ld	hl,1	;const
   833   0018d9 39              	add	hl,sp
   833   0018da e5              	push	hl
   833   0018db cd0000          	call	_getbyte
   833   0018de 7d              	ld	a,l
   833   0018df d1              	pop	de
   833   0018e0 12              	ld	(de),a
   833   0018e1 218109          	ld	hl,i_1+2433
   833   0018e4 e5              	push	hl
   833   0018e5 3e01            	ld	a,1
   833   0018e7 cd0000          	call	printf
   833   0018ea c1              	pop	bc
   833   0018eb 210000          	ld	hl,0	;const
   833   0018ee 39              	add	hl,sp
   833   0018ef e5              	push	hl
   833   0018f0 cd0000          	call	_getbyte
   833   0018f3 7d              	ld	a,l
   833   0018f4 d1              	pop	de
   833   0018f5 12              	ld	(de),a
   833   0018f6 211400          	ld	hl,20	;const
   833   0018f9 e5              	push	hl
   833   0018fa cd0000          	call	_esp1_outbyte
   833   0018fd c1              	pop	bc
   833   0018fe 210300          	ld	hl,3	;const
   833   001901 39              	add	hl,sp
   833   001902 cd0000          	call	l_gchar
   833   001905 e5              	push	hl
   833   001906 cd0000          	call	_esp1_outbyte
   833   001909 c1              	pop	bc
   833   00190a 210200          	ld	hl,2	;const
   833   00190d 39              	add	hl,sp
   833   00190e cd0000          	call	l_gchar
   833   001911 e5              	push	hl
   833   001912 cd0000          	call	_esp1_outbyte
   833   001915 c1              	pop	bc
   833   001916 210100          	ld	hl,1	;const
   833   001919 39              	add	hl,sp
   833   00191a cd0000          	call	l_gchar
   833   00191d e5              	push	hl
   833   00191e cd0000          	call	_esp1_outbyte
   833   001921 c1              	pop	bc
   833   001922 210000          	ld	hl,0	;const
   833   001925 39              	add	hl,sp
   833   001926 cd0000          	call	l_gchar
   833   001929 e5              	push	hl
   833   00192a cd0000          	call	_esp1_outbyte
   833   00192d c1              	pop	bc
   833   00192e c1              	pop	bc
   833   00192f c1              	pop	bc
   833   001930 c9              	ret
   833                          
   833                          
   833                          	C_LINE	858,"testesp.c::set_primary_dns_test::0::48"
testesp.c::set_primary_dns_test::0::48:
   858                          
   858                          ; Function set_secondary_dns_test flags 0x00000200 __smallc
   858                          ; int set_secondary_dns_test()
   858                          	C_LINE	859,"testesp.c::set_secondary_dns_test::0::48"
testesp.c::set_secondary_dns_test::0::48:
   859                          ._set_secondary_dns_test
   859   001931 c5              	push	bc
   859   001932 c5              	push	bc
   859   001933 211800          	ld	hl,i_1+24
   859   001936 e5              	push	hl
   859   001937 3e01            	ld	a,1
   859   001939 cd0000          	call	printf
   859   00193c 212400          	ld	hl,i_1+36
   859   00193f e3              	ex	(sp),hl
   859   001940 cd0000          	call	_printcentered
   859   001943 c1              	pop	bc
   859   001944 219e00          	ld	hl,i_1+158
   859   001947 e5              	push	hl
   859   001948 cd0000          	call	puts
   859   00194b 218b0a          	ld	hl,i_1+2699
   859   00194e e3              	ex	(sp),hl
   859   00194f cd0000          	call	_printcentered
   859   001952 c1              	pop	bc
   859   001953 211701          	ld	hl,i_1+279
   859   001956 e5              	push	hl
   859   001957 cd0000          	call	puts
   859   00195a c1              	pop	bc
   859   00195b 21a80a          	ld	hl,i_1+2728
   859   00195e e5              	push	hl
   859   00195f 3e01            	ld	a,1
   859   001961 cd0000          	call	printf
   859   001964 c1              	pop	bc
   859   001965 21c20a          	ld	hl,i_1+2754
   859   001968 e5              	push	hl
   859   001969 3e01            	ld	a,1
   859   00196b cd0000          	call	printf
   859   00196e c1              	pop	bc
   859   00196f 21dc0a          	ld	hl,i_1+2780
   859   001972 e5              	push	hl
   859   001973 3e01            	ld	a,1
   859   001975 cd0000          	call	printf
   859   001978 c1              	pop	bc
   859   001979 21f60a          	ld	hl,i_1+2806
   859   00197c e5              	push	hl
   859   00197d 3e01            	ld	a,1
   859   00197f cd0000          	call	printf
   859   001982 c1              	pop	bc
   859   001983 21d107          	ld	hl,i_1+2001
   859   001986 e5              	push	hl
   859   001987 3e01            	ld	a,1
   859   001989 cd0000          	call	printf
   859   00198c c1              	pop	bc
   859   00198d 210300          	ld	hl,3	;const
   859   001990 39              	add	hl,sp
   859   001991 e5              	push	hl
   859   001992 cd0000          	call	_getbyte
   859   001995 7d              	ld	a,l
   859   001996 d1              	pop	de
   859   001997 12              	ld	(de),a
   859   001998 21de07          	ld	hl,i_1+2014
   859   00199b e5              	push	hl
   859   00199c 3e01            	ld	a,1
   859   00199e cd0000          	call	printf
   859   0019a1 c1              	pop	bc
   859   0019a2 210200          	ld	hl,2	;const
   859   0019a5 39              	add	hl,sp
   859   0019a6 e5              	push	hl
   859   0019a7 cd0000          	call	_getbyte
   859   0019aa 7d              	ld	a,l
   859   0019ab d1              	pop	de
   859   0019ac 12              	ld	(de),a
   859   0019ad 217409          	ld	hl,i_1+2420
   859   0019b0 e5              	push	hl
   859   0019b1 3e01            	ld	a,1
   859   0019b3 cd0000          	call	printf
   859   0019b6 c1              	pop	bc
   859   0019b7 210100          	ld	hl,1	;const
   859   0019ba 39              	add	hl,sp
   859   0019bb e5              	push	hl
   859   0019bc cd0000          	call	_getbyte
   859   0019bf 7d              	ld	a,l
   859   0019c0 d1              	pop	de
   859   0019c1 12              	ld	(de),a
   859   0019c2 218109          	ld	hl,i_1+2433
   859   0019c5 e5              	push	hl
   859   0019c6 3e01            	ld	a,1
   859   0019c8 cd0000          	call	printf
   859   0019cb c1              	pop	bc
   859   0019cc 210000          	ld	hl,0	;const
   859   0019cf 39              	add	hl,sp
   859   0019d0 e5              	push	hl
   859   0019d1 cd0000          	call	_getbyte
   859   0019d4 7d              	ld	a,l
   859   0019d5 d1              	pop	de
   859   0019d6 12              	ld	(de),a
   859   0019d7 211500          	ld	hl,21	;const
   859   0019da e5              	push	hl
   859   0019db cd0000          	call	_esp1_outbyte
   859   0019de c1              	pop	bc
   859   0019df 210300          	ld	hl,3	;const
   859   0019e2 39              	add	hl,sp
   859   0019e3 cd0000          	call	l_gchar
   859   0019e6 e5              	push	hl
   859   0019e7 cd0000          	call	_esp1_outbyte
   859   0019ea c1              	pop	bc
   859   0019eb 210200          	ld	hl,2	;const
   859   0019ee 39              	add	hl,sp
   859   0019ef cd0000          	call	l_gchar
   859   0019f2 e5              	push	hl
   859   0019f3 cd0000          	call	_esp1_outbyte
   859   0019f6 c1              	pop	bc
   859   0019f7 210100          	ld	hl,1	;const
   859   0019fa 39              	add	hl,sp
   859   0019fb cd0000          	call	l_gchar
   859   0019fe e5              	push	hl
   859   0019ff cd0000          	call	_esp1_outbyte
   859   001a02 c1              	pop	bc
   859   001a03 210000          	ld	hl,0	;const
   859   001a06 39              	add	hl,sp
   859   001a07 cd0000          	call	l_gchar
   859   001a0a e5              	push	hl
   859   001a0b cd0000          	call	_esp1_outbyte
   859   001a0e c1              	pop	bc
   859   001a0f c1              	pop	bc
   859   001a10 c1              	pop	bc
   859   001a11 c9              	ret
   859                          
   859                          
   859                          	C_LINE	884,"testesp.c::set_secondary_dns_test::0::49"
testesp.c::set_secondary_dns_test::0::49:
   884                          
   884                          ; Function set_hostname_test flags 0x00000200 __smallc
   884                          ; int set_hostname_test()
   884                          	C_LINE	885,"testesp.c::set_hostname_test::0::49"
testesp.c::set_hostname_test::0::49:
   885                          ._set_hostname_test
   885   001a12 21c0ff          	ld	hl,65472	;const
   885   001a15 39              	add	hl,sp
   885   001a16 f9              	ld	sp,hl
   885   001a17 e5              	push	hl
   885   001a18 211800          	ld	hl,i_1+24
   885   001a1b e5              	push	hl
   885   001a1c 3e01            	ld	a,1
   885   001a1e cd0000          	call	printf
   885   001a21 212400          	ld	hl,i_1+36
   885   001a24 e3              	ex	(sp),hl
   885   001a25 cd0000          	call	_printcentered
   885   001a28 c1              	pop	bc
   885   001a29 219e00          	ld	hl,i_1+158
   885   001a2c e5              	push	hl
   885   001a2d cd0000          	call	puts
   885   001a30 21100b          	ld	hl,i_1+2832
   885   001a33 e3              	ex	(sp),hl
   885   001a34 cd0000          	call	_printcentered
   885   001a37 c1              	pop	bc
   885   001a38 211701          	ld	hl,i_1+279
   885   001a3b e5              	push	hl
   885   001a3c cd0000          	call	puts
   885   001a3f c1              	pop	bc
   885   001a40 21220b          	ld	hl,i_1+2850
   885   001a43 e5              	push	hl
   885   001a44 3e01            	ld	a,1
   885   001a46 cd0000          	call	printf
   885   001a49 c1              	pop	bc
   885   001a4a 21d107          	ld	hl,i_1+2001
   885   001a4d e5              	push	hl
   885   001a4e 3e01            	ld	a,1
   885   001a50 cd0000          	call	printf
   885   001a53 c1              	pop	bc
   885   001a54 210200          	ld	hl,2	;const
   885   001a57 39              	add	hl,sp
   885   001a58 e5              	push	hl
   885   001a59 cd0000          	call	_getstring
   885   001a5c 211600          	ld	hl,22	;const
   885   001a5f e3              	ex	(sp),hl
   885   001a60 cd0000          	call	_esp1_outbyte
   885   001a63 c1              	pop	bc
   885                          .i_28
   885   001a64 e1              	pop	hl
   885   001a65 e5              	push	hl
   885   001a66 7e              	ld	a,(hl)
   885   001a67 a7              	and	a
   885   001a68 ca7a1a          	jp	z,i_29	;
   885   001a6b e1              	pop	hl
   885   001a6c 23              	inc	hl
   885   001a6d e5              	push	hl
   885   001a6e 2b              	dec	hl
   885   001a6f cd0000          	call	l_gchar
   885   001a72 e5              	push	hl
   885   001a73 cd0000          	call	_esp1_outbyte
   885   001a76 c1              	pop	bc
   885   001a77 c3641a          	jp	i_28	;EOS
   885                          .i_29
   885   001a7a 210000          	ld	hl,0	;const
   885   001a7d e5              	push	hl
   885   001a7e cd0000          	call	_esp1_outbyte
   885   001a81 c1              	pop	bc
   885   001a82 214200          	ld	hl,66	;const
   885   001a85 39              	add	hl,sp
   885   001a86 f9              	ld	sp,hl
   885   001a87 c9              	ret
   885                          
   885                          
   885                          	C_LINE	902,"testesp.c::set_hostname_test::0::50"
testesp.c::set_hostname_test::0::50:
   902                          
   902                          ; Function set_incoming_port_test flags 0x00000200 __smallc
   902                          ; int set_incoming_port_test()
   902                          	C_LINE	903,"testesp.c::set_incoming_port_test::0::50"
testesp.c::set_incoming_port_test::0::50:
   903                          ._set_incoming_port_test
   903   001a88 c5              	push	bc
   903   001a89 211800          	ld	hl,i_1+24
   903   001a8c e5              	push	hl
   903   001a8d 3e01            	ld	a,1
   903   001a8f cd0000          	call	printf
   903   001a92 212400          	ld	hl,i_1+36
   903   001a95 e3              	ex	(sp),hl
   903   001a96 cd0000          	call	_printcentered
   903   001a99 c1              	pop	bc
   903   001a9a 219e00          	ld	hl,i_1+158
   903   001a9d e5              	push	hl
   903   001a9e cd0000          	call	puts
   903   001aa1 213b0b          	ld	hl,i_1+2875
   903   001aa4 e3              	ex	(sp),hl
   903   001aa5 cd0000          	call	_printcentered
   903   001aa8 c1              	pop	bc
   903   001aa9 211701          	ld	hl,i_1+279
   903   001aac e5              	push	hl
   903   001aad cd0000          	call	puts
   903   001ab0 c1              	pop	bc
   903   001ab1 21510b          	ld	hl,i_1+2897
   903   001ab4 e5              	push	hl
   903   001ab5 3e01            	ld	a,1
   903   001ab7 cd0000          	call	printf
   903   001aba c1              	pop	bc
   903   001abb 21690b          	ld	hl,i_1+2921
   903   001abe e5              	push	hl
   903   001abf 3e01            	ld	a,1
   903   001ac1 cd0000          	call	printf
   903   001ac4 c1              	pop	bc
   903   001ac5 cd0000          	call	_getint
   903   001ac8 c1              	pop	bc
   903   001ac9 e5              	push	hl
   903   001aca 211701          	ld	hl,i_1+279
   903   001acd e5              	push	hl
   903   001ace cd0000          	call	puts
   903   001ad1 211800          	ld	hl,24	;const
   903   001ad4 e3              	ex	(sp),hl
   903   001ad5 cd0000          	call	_esp1_outbyte
   903   001ad8 c1              	pop	bc
   903   001ad9 e1              	pop	hl
   903   001ada e5              	push	hl
   903   001adb e5              	push	hl
   903   001adc cd0000          	call	_esp1_outint
   903   001adf c1              	pop	bc
   903   001ae0 c1              	pop	bc
   903   001ae1 c9              	ret
   903                          
   903                          
   903                          	C_LINE	919,"testesp.c::set_incoming_port_test::0::51"
testesp.c::set_incoming_port_test::0::51:
   919                          
   919                          ; Function out_byte_to_connection_test flags 0x00000200 __smallc
   919                          ; int out_byte_to_connection_test()
   919                          	C_LINE	920,"testesp.c::out_byte_to_connection_test::0::51"
testesp.c::out_byte_to_connection_test::0::51:
   920                          ._out_byte_to_connection_test
   920   001ae2 3b              	dec	sp
   920   001ae3 e1              	pop	hl
   920   001ae4 2e20            	ld	l,32
   920   001ae6 e5              	push	hl
   920   001ae7 3b              	dec	sp
   920   001ae8 211800          	ld	hl,i_1+24
   920   001aeb e5              	push	hl
   920   001aec 3e01            	ld	a,1
   920   001aee cd0000          	call	printf
   920   001af1 212400          	ld	hl,i_1+36
   920   001af4 e3              	ex	(sp),hl
   920   001af5 cd0000          	call	_printcentered
   920   001af8 c1              	pop	bc
   920   001af9 219e00          	ld	hl,i_1+158
   920   001afc e5              	push	hl
   920   001afd cd0000          	call	puts
   920   001b00 21760b          	ld	hl,i_1+2934
   920   001b03 e3              	ex	(sp),hl
   920   001b04 cd0000          	call	_printcentered
   920   001b07 c1              	pop	bc
   920   001b08 211701          	ld	hl,i_1+279
   920   001b0b e5              	push	hl
   920   001b0c cd0000          	call	puts
   920   001b0f 219b0b          	ld	hl,i_1+2971
   920   001b12 e3              	ex	(sp),hl
   920   001b13 cd0000          	call	_printcentered
   920   001b16 c1              	pop	bc
   920   001b17 21ea0b          	ld	hl,i_1+3050
   920   001b1a e5              	push	hl
   920   001b1b 3e01            	ld	a,1
   920   001b1d cd0000          	call	printf
   920   001b20 c1              	pop	bc
   920   001b21 21080c          	ld	hl,i_1+3080
   920   001b24 e5              	push	hl
   920   001b25 3e01            	ld	a,1
   920   001b27 cd0000          	call	printf
   920   001b2a c1              	pop	bc
   920   001b2b 210000          	ld	hl,0	;const
   920   001b2e 39              	add	hl,sp
   920   001b2f e5              	push	hl
   920   001b30 cd0000          	call	_getbyte
   920   001b33 7d              	ld	a,l
   920   001b34 cd0000          	call	l_sxt
   920   001b37 d1              	pop	de
   920   001b38 7d              	ld	a,l
   920   001b39 12              	ld	(de),a
   920                          .i_30
   920   001b3a 210100          	ld	hl,1	;const
   920   001b3d 39              	add	hl,sp
   920   001b3e 7e              	ld	a,(hl)
   920   001b3f fe1b            	cp	27
   920   001b41 37              	scf
   920   001b42 2001            	jr	nz,ASMPC+3
   920   001b44 3f              	ccf
   920   001b45 d2ac1b          	jp	nc,i_31	;
   920   001b48 21150c          	ld	hl,i_1+3093
   920   001b4b e5              	push	hl
   920   001b4c 3e01            	ld	a,1
   920   001b4e cd0000          	call	printf
   920   001b51 c1              	pop	bc
   920   001b52 210100          	ld	hl,1	;const
   920   001b55 39              	add	hl,sp
   920   001b56 e5              	push	hl
   920   001b57 210000          	ld	hl,__sgoioblk
   920   001b5a e5              	push	hl
   920   001b5b cd0000          	call	fgetc
   920   001b5e c1              	pop	bc
   920   001b5f 7d              	ld	a,l
   920   001b60 d1              	pop	de
   920   001b61 12              	ld	(de),a
   920   001b62 211701          	ld	hl,i_1+279
   920   001b65 e5              	push	hl
   920   001b66 3e01            	ld	a,1
   920   001b68 cd0000          	call	printf
   920   001b6b c1              	pop	bc
   920   001b6c 210100          	ld	hl,1	;const
   920   001b6f 39              	add	hl,sp
   920   001b70 7e              	ld	a,(hl)
   920   001b71 fe1b            	cp	27
   920   001b73 37              	scf
   920   001b74 2001            	jr	nz,ASMPC+3
   920   001b76 3f              	ccf
   920   001b77 d23a1b          	jp	nc,i_32	;
   920   001b7a 210100          	ld	hl,1	;const
   920   001b7d 39              	add	hl,sp
   920   001b7e cd0000          	call	l_gchar
   920   001b81 cd0000          	call	isprint
   920   001b84 7c              	ld	a,h
   920   001b85 b5              	or	l
   920   001b86 ca3a1b          	jp	z,i_33	;
   920   001b89 211900          	ld	hl,25	;const
   920   001b8c e5              	push	hl
   920   001b8d cd0000          	call	_esp1_outbyte
   920   001b90 c1              	pop	bc
   920   001b91 210000          	ld	hl,0	;const
   920   001b94 39              	add	hl,sp
   920   001b95 cd0000          	call	l_gchar
   920   001b98 e5              	push	hl
   920   001b99 cd0000          	call	_esp1_outbyte
   920   001b9c c1              	pop	bc
   920   001b9d 210100          	ld	hl,1	;const
   920   001ba0 39              	add	hl,sp
   920   001ba1 cd0000          	call	l_gchar
   920   001ba4 e5              	push	hl
   920   001ba5 cd0000          	call	_esp1_outbyte
   920   001ba8 c1              	pop	bc
   920   001ba9 c33a1b          	jp	i_30	;EOS
   920                          .i_31
   920   001bac c1              	pop	bc
   920   001bad c9              	ret
   920                          
   920                          
   920                          	C_LINE	952,"testesp.c::out_byte_to_connection_test::0::55"
testesp.c::out_byte_to_connection_test::0::55:
   952                          
   952                          ; Function out_string_to_connection_test flags 0x00000200 __smallc
   952                          ; int out_string_to_connection_test()
   952                          	C_LINE	953,"testesp.c::out_string_to_connection_test::0::55"
testesp.c::out_string_to_connection_test::0::55:
   953                          ._out_string_to_connection_test
   953   001bae 21270c          	ld	hl,i_1+3111
   953   001bb1 e5              	push	hl
   953   001bb2 e5              	push	hl
   953   001bb3 3b              	dec	sp
   953   001bb4 211800          	ld	hl,i_1+24
   953   001bb7 e5              	push	hl
   953   001bb8 3e01            	ld	a,1
   953   001bba cd0000          	call	printf
   953   001bbd 212400          	ld	hl,i_1+36
   953   001bc0 e3              	ex	(sp),hl
   953   001bc1 cd0000          	call	_printcentered
   953   001bc4 c1              	pop	bc
   953   001bc5 219e00          	ld	hl,i_1+158
   953   001bc8 e5              	push	hl
   953   001bc9 cd0000          	call	puts
   953   001bcc 21a50c          	ld	hl,i_1+3237
   953   001bcf e3              	ex	(sp),hl
   953   001bd0 cd0000          	call	_printcentered
   953   001bd3 c1              	pop	bc
   953   001bd4 211701          	ld	hl,i_1+279
   953   001bd7 e5              	push	hl
   953   001bd8 cd0000          	call	puts
   953   001bdb c1              	pop	bc
   953   001bdc 21ea0b          	ld	hl,i_1+3050
   953   001bdf e5              	push	hl
   953   001be0 3e01            	ld	a,1
   953   001be2 cd0000          	call	printf
   953   001be5 c1              	pop	bc
   953   001be6 21080c          	ld	hl,i_1+3080
   953   001be9 e5              	push	hl
   953   001bea 3e01            	ld	a,1
   953   001bec cd0000          	call	printf
   953   001bef c1              	pop	bc
   953   001bf0 210000          	ld	hl,0	;const
   953   001bf3 39              	add	hl,sp
   953   001bf4 e5              	push	hl
   953   001bf5 cd0000          	call	_getbyte
   953   001bf8 7d              	ld	a,l
   953   001bf9 d1              	pop	de
   953   001bfa 12              	ld	(de),a
   953   001bfb 211701          	ld	hl,i_1+279
   953   001bfe e5              	push	hl
   953   001bff cd0000          	call	puts
   953   001c02 211a00          	ld	hl,26	;const
   953   001c05 e3              	ex	(sp),hl
   953   001c06 cd0000          	call	_esp1_outbyte
   953   001c09 c1              	pop	bc
   953   001c0a 210000          	ld	hl,0	;const
   953   001c0d 39              	add	hl,sp
   953   001c0e cd0000          	call	l_gchar
   953   001c11 e5              	push	hl
   953   001c12 cd0000          	call	_esp1_outbyte
   953   001c15 c1              	pop	bc
   953                          .i_34
   953   001c16 210100          	ld	hl,1	;const
   953   001c19 39              	add	hl,sp
   953   001c1a cd0000          	call	l_gint	;
   953   001c1d 7e              	ld	a,(hl)
   953   001c1e a7              	and	a
   953   001c1f ca391c          	jp	z,i_35	;
   953   001c22 210100          	ld	hl,1	;const
   953   001c25 39              	add	hl,sp
   953   001c26 34              	inc	(hl)
   953   001c27 7e              	ld	a,(hl)
   953   001c28 23              	inc	hl
   953   001c29 2001            	jr	nz,ASMPC+3
   953   001c2b 34              	inc	(hl)
   953   001c2c 66              	ld	h,(hl)
   953   001c2d 6f              	ld	l,a
   953   001c2e cd0000          	call	l_gchar
   953   001c31 e5              	push	hl
   953   001c32 cd0000          	call	_esp1_outbyte
   953   001c35 c1              	pop	bc
   953   001c36 c3161c          	jp	i_34	;EOS
   953                          .i_35
   953   001c39 210000          	ld	hl,0	;const
   953   001c3c e5              	push	hl
   953   001c3d cd0000          	call	_esp1_outbyte
   953   001c40 c1              	pop	bc
   953   001c41 33              	inc	sp
   953   001c42 c1              	pop	bc
   953   001c43 c1              	pop	bc
   953   001c44 c9              	ret
   953                          
   953                          
   953                          	C_LINE	972,"testesp.c::out_string_to_connection_test::0::56"
testesp.c::out_string_to_connection_test::0::56:
   972                          
   972                          ; Function in_byte_from_connection_test flags 0x00000200 __smallc
   972                          ; int in_byte_from_connection_test()
   972                          	C_LINE	973,"testesp.c::in_byte_from_connection_test::0::56"
testesp.c::in_byte_from_connection_test::0::56:
   973                          ._in_byte_from_connection_test
   973   001c45 212020          	ld	hl,8224
   973   001c48 e5              	push	hl
   973   001c49 3b              	dec	sp
   973   001c4a 211800          	ld	hl,i_1+24
   973   001c4d e5              	push	hl
   973   001c4e 3e01            	ld	a,1
   973   001c50 cd0000          	call	printf
   973   001c53 212400          	ld	hl,i_1+36
   973   001c56 e3              	ex	(sp),hl
   973   001c57 cd0000          	call	_printcentered
   973   001c5a c1              	pop	bc
   973   001c5b 219e00          	ld	hl,i_1+158
   973   001c5e e5              	push	hl
   973   001c5f cd0000          	call	puts
   973   001c62 21c50c          	ld	hl,i_1+3269
   973   001c65 e3              	ex	(sp),hl
   973   001c66 cd0000          	call	_printcentered
   973   001c69 c1              	pop	bc
   973   001c6a 211701          	ld	hl,i_1+279
   973   001c6d e5              	push	hl
   973   001c6e cd0000          	call	puts
   973   001c71 c1              	pop	bc
   973   001c72 214100          	ld	hl,i_1+65
   973   001c75 e5              	push	hl
   973   001c76 cd0000          	call	puts
   973   001c79 21e80c          	ld	hl,i_1+3304
   973   001c7c e3              	ex	(sp),hl
   973   001c7d cd0000          	call	_printcentered
   973   001c80 c1              	pop	bc
   973   001c81 21ea0b          	ld	hl,i_1+3050
   973   001c84 e5              	push	hl
   973   001c85 3e01            	ld	a,1
   973   001c87 cd0000          	call	printf
   973   001c8a c1              	pop	bc
   973   001c8b 21080c          	ld	hl,i_1+3080
   973   001c8e e5              	push	hl
   973   001c8f 3e01            	ld	a,1
   973   001c91 cd0000          	call	printf
   973   001c94 c1              	pop	bc
   973   001c95 210000          	ld	hl,0	;const
   973   001c98 39              	add	hl,sp
   973   001c99 e5              	push	hl
   973   001c9a cd0000          	call	_getbyte
   973   001c9d 7d              	ld	a,l
   973   001c9e d1              	pop	de
   973   001c9f 12              	ld	(de),a
   973   001ca0 211701          	ld	hl,i_1+279
   973   001ca3 e5              	push	hl
   973   001ca4 cd0000          	call	puts
   973   001ca7 c1              	pop	bc
   973                          .i_36
   973   001ca8 cd0000          	call	getk
   973   001cab cd0000          	call	l_lneg
   973   001cae d24a1d          	jp	nc,i_37	;
   973   001cb1 211c00          	ld	hl,28	;const
   973   001cb4 e5              	push	hl
   973   001cb5 cd0000          	call	_esp1_outbyte
   973   001cb8 c1              	pop	bc
   973   001cb9 210200          	ld	hl,2	;const
   973   001cbc 39              	add	hl,sp
   973   001cbd e5              	push	hl
   973   001cbe cd0000          	call	_esp1_inbytewait
   973   001cc1 7d              	ld	a,l
   973   001cc2 d1              	pop	de
   973   001cc3 12              	ld	(de),a
   973   001cc4 210200          	ld	hl,2	;const
   973   001cc7 39              	add	hl,sp
   973   001cc8 cd0000          	call	l_gchar
   973   001ccb 110000          	ld	de,0
   973   001cce eb              	ex	de,hl
   973   001ccf cd0000          	call	l_gt
   973   001cd2 d2a81c          	jp	nc,i_38	;
   973   001cd5 211b00          	ld	hl,27	;const
   973   001cd8 e5              	push	hl
   973   001cd9 cd0000          	call	_esp1_outbyte
   973   001cdc c1              	pop	bc
   973   001cdd 210000          	ld	hl,0	;const
   973   001ce0 39              	add	hl,sp
   973   001ce1 cd0000          	call	l_gchar
   973   001ce4 e5              	push	hl
   973   001ce5 cd0000          	call	_esp1_outbyte
   973   001ce8 c1              	pop	bc
   973   001ce9 210200          	ld	hl,2	;const
   973   001cec 39              	add	hl,sp
   973   001ced e5              	push	hl
   973   001cee cd0000          	call	_esp1_inbytewait
   973   001cf1 7d              	ld	a,l
   973   001cf2 d1              	pop	de
   973   001cf3 12              	ld	(de),a
   973   001cf4 211d0d          	ld	hl,i_1+3357
   973   001cf7 e5              	push	hl
   973   001cf8 3e01            	ld	a,1
   973   001cfa cd0000          	call	printf
   973   001cfd c1              	pop	bc
   973   001cfe 210200          	ld	hl,2	;const
   973   001d01 39              	add	hl,sp
   973   001d02 cd0000          	call	l_gchar
   973   001d05 cd0000          	call	isprint
   973   001d08 7c              	ld	a,h
   973   001d09 b5              	or	l
   973   001d0a ca2a1d          	jp	z,i_39	;
   973   001d0d 214a0d          	ld	hl,i_1+3402
   973   001d10 e5              	push	hl
   973   001d11 210400          	ld	hl,4	;const
   973   001d14 cd0000          	call	l_gcharspsp	;
   973   001d17 210600          	ld	hl,6	;const
   973   001d1a 39              	add	hl,sp
   973   001d1b cd0000          	call	l_gchar
   973   001d1e e5              	push	hl
   973   001d1f 3e03            	ld	a,3
   973   001d21 cd0000          	call	printf
   973   001d24 c1              	pop	bc
   973   001d25 c1              	pop	bc
   973   001d26 c1              	pop	bc
   973   001d27 c33d1d          	jp	i_40	;EOS
   973                          .i_39
   973   001d2a 215b0d          	ld	hl,i_1+3419
   973   001d2d e5              	push	hl
   973   001d2e 210400          	ld	hl,4	;const
   973   001d31 39              	add	hl,sp
   973   001d32 cd0000          	call	l_gchar
   973   001d35 e5              	push	hl
   973   001d36 3e02            	ld	a,2
   973   001d38 cd0000          	call	printf
   973   001d3b c1              	pop	bc
   973   001d3c c1              	pop	bc
   973                          .i_40
   973   001d3d 211701          	ld	hl,i_1+279
   973   001d40 e5              	push	hl
   973   001d41 3e01            	ld	a,1
   973   001d43 cd0000          	call	printf
   973   001d46 c1              	pop	bc
   973   001d47 c3a81c          	jp	i_36	;EOS
   973                          .i_37
   973   001d4a 33              	inc	sp
   973   001d4b c1              	pop	bc
   973   001d4c c9              	ret
   973                          
   973                          
   973                          	C_LINE	1008,"testesp.c::in_byte_from_connection_test::0::59"
testesp.c::in_byte_from_connection_test::0::59:
  1008                          
  1008                          ; Function queue_length_from_connection_test flags 0x00000200 __smallc
  1008                          ; int queue_length_from_connection_test()
  1008                          	C_LINE	1009,"testesp.c::queue_length_from_connection_test::0::59"
testesp.c::queue_length_from_connection_test::0::59:
  1009                          ._queue_length_from_connection_test
  1009   001d4d c5              	push	bc
  1009   001d4e 3b              	dec	sp
  1009   001d4f 211800          	ld	hl,i_1+24
  1009   001d52 e5              	push	hl
  1009   001d53 3e01            	ld	a,1
  1009   001d55 cd0000          	call	printf
  1009   001d58 212400          	ld	hl,i_1+36
  1009   001d5b e3              	ex	(sp),hl
  1009   001d5c cd0000          	call	_printcentered
  1009   001d5f c1              	pop	bc
  1009   001d60 219e00          	ld	hl,i_1+158
  1009   001d63 e5              	push	hl
  1009   001d64 cd0000          	call	puts
  1009   001d67 21670d          	ld	hl,i_1+3431
  1009   001d6a e3              	ex	(sp),hl
  1009   001d6b cd0000          	call	_printcentered
  1009   001d6e c1              	pop	bc
  1009   001d6f 211701          	ld	hl,i_1+279
  1009   001d72 e5              	push	hl
  1009   001d73 cd0000          	call	puts
  1009   001d76 c1              	pop	bc
  1009   001d77 21ea0b          	ld	hl,i_1+3050
  1009   001d7a e5              	push	hl
  1009   001d7b 3e01            	ld	a,1
  1009   001d7d cd0000          	call	printf
  1009   001d80 c1              	pop	bc
  1009   001d81 21080c          	ld	hl,i_1+3080
  1009   001d84 e5              	push	hl
  1009   001d85 3e01            	ld	a,1
  1009   001d87 cd0000          	call	printf
  1009   001d8a c1              	pop	bc
  1009   001d8b 210000          	ld	hl,0	;const
  1009   001d8e 39              	add	hl,sp
  1009   001d8f e5              	push	hl
  1009   001d90 cd0000          	call	_getbyte
  1009   001d93 7d              	ld	a,l
  1009   001d94 d1              	pop	de
  1009   001d95 12              	ld	(de),a
  1009   001d96 211701          	ld	hl,i_1+279
  1009   001d99 e5              	push	hl
  1009   001d9a cd0000          	call	puts
  1009   001d9d 211c00          	ld	hl,28	;const
  1009   001da0 e3              	ex	(sp),hl
  1009   001da1 cd0000          	call	_esp1_outbyte
  1009   001da4 c1              	pop	bc
  1009   001da5 210100          	ld	hl,1	;const
  1009   001da8 39              	add	hl,sp
  1009   001da9 e5              	push	hl
  1009   001daa cd0000          	call	_esp1_inbytewait
  1009   001dad d1              	pop	de
  1009   001dae cd0000          	call	l_pint
  1009   001db1 21870d          	ld	hl,i_1+3463
  1009   001db4 e5              	push	hl
  1009   001db5 210300          	ld	hl,3	;const
  1009   001db8 39              	add	hl,sp
  1009   001db9 cd0000          	call	l_gint	;
  1009   001dbc e5              	push	hl
  1009   001dbd 3e02            	ld	a,2
  1009   001dbf cd0000          	call	printf
  1009   001dc2 c1              	pop	bc
  1009   001dc3 c1              	pop	bc
  1009   001dc4 21a90d          	ld	hl,i_1+3497
  1009   001dc7 e5              	push	hl
  1009   001dc8 3e01            	ld	a,1
  1009   001dca cd0000          	call	printf
  1009   001dcd c1              	pop	bc
  1009   001dce 210000          	ld	hl,__sgoioblk
  1009   001dd1 e5              	push	hl
  1009   001dd2 cd0000          	call	fgetc
  1009   001dd5 c1              	pop	bc
  1009   001dd6 33              	inc	sp
  1009   001dd7 c1              	pop	bc
  1009   001dd8 c9              	ret
  1009                          
  1009                          
  1009                          	C_LINE	1029,"testesp.c::queue_length_from_connection_test::0::60"
testesp.c::queue_length_from_connection_test::0::60:
  1029                          
  1029                          ; Function set_byte_mode_test flags 0x00000200 __smallc
  1029                          ; int set_byte_mode_test()
  1029                          	C_LINE	1030,"testesp.c::set_byte_mode_test::0::60"
testesp.c::set_byte_mode_test::0::60:
  1030                          ._set_byte_mode_test
  1030                          	SECTION	data_compiler
  1030                          ._auto_set_byte_mode_test_TELNET_CHAR_MODE
  1030   0003ce 00              	defb	255
  1030   0003cf 00              	defb	251
  1030   0003d0 00              	defb	1
  1030   0003d1 00              	defb	255
  1030   0003d2 00              	defb	251
  1030   0003d3 00              	defb	3
  1030   0003d4 00              	defb	255
  1030   0003d5 00              	defb	252
  1030   0003d6 00              	defb	34
  1030   0003d7 00              	defb	0
  1030   0003d8 00              	defb	0
  1030                          	SECTION	code_compiler
  1030   001dd9 21f5ff          	ld	hl,65525	;const
  1030   001ddc 39              	add	hl,sp
  1030   001ddd f9              	ld	sp,hl
  1030   001dde eb              	ex	de,hl
  1030   001ddf 21ce03          	ld	hl,_auto_set_byte_mode_test_TELNET_CHAR_MODE
  1030   001de2 010b00          	ld	bc,11
  1030   001de5 edb0            	ldir
  1030   001de7 210000          	ld	hl,0	;const
  1030   001dea 39              	add	hl,sp
  1030   001deb e5              	push	hl
  1030   001dec 211a00          	ld	hl,26	;const
  1030   001def e5              	push	hl
  1030   001df0 cd0000          	call	_esp1_outbyte
  1030   001df3 210000          	ld	hl,0	;const
  1030   001df6 e3              	ex	(sp),hl
  1030   001df7 cd0000          	call	_esp1_outbyte
  1030   001dfa c1              	pop	bc
  1030                          .i_42
  1030   001dfb e1              	pop	hl
  1030   001dfc e5              	push	hl
  1030   001dfd 7e              	ld	a,(hl)
  1030   001dfe a7              	and	a
  1030   001dff ca101e          	jp	z,i_43	;
  1030   001e02 e1              	pop	hl
  1030   001e03 23              	inc	hl
  1030   001e04 e5              	push	hl
  1030   001e05 cd0000          	call	l_gchar
  1030   001e08 e5              	push	hl
  1030   001e09 cd0000          	call	_esp1_outbyte
  1030   001e0c c1              	pop	bc
  1030   001e0d c3fb1d          	jp	i_42	;EOS
  1030                          .i_43
  1030   001e10 210000          	ld	hl,0	;const
  1030   001e13 e5              	push	hl
  1030   001e14 cd0000          	call	_esp1_outbyte
  1030   001e17 c1              	pop	bc
  1030   001e18 210d00          	ld	hl,13	;const
  1030   001e1b 39              	add	hl,sp
  1030   001e1c f9              	ld	sp,hl
  1030   001e1d c9              	ret
  1030                          
  1030                          
  1030                          	C_LINE	1038,"testesp.c::set_byte_mode_test::0::61"
testesp.c::set_byte_mode_test::0::61:
  1038                          
  1038                          ; Function create_tcp_connection_test flags 0x00000200 __smallc
  1038                          ; int create_tcp_connection_test()
  1038                          	C_LINE	1039,"testesp.c::create_tcp_connection_test::0::61"
testesp.c::create_tcp_connection_test::0::61:
  1039                          ._create_tcp_connection_test
  1039   001e1e 21c0ff          	ld	hl,65472	;const
  1039   001e21 39              	add	hl,sp
  1039   001e22 f9              	ld	sp,hl
  1039   001e23 e5              	push	hl
  1039   001e24 c5              	push	bc
  1039   001e25 3b              	dec	sp
  1039   001e26 211800          	ld	hl,i_1+24
  1039   001e29 e5              	push	hl
  1039   001e2a 3e01            	ld	a,1
  1039   001e2c cd0000          	call	printf
  1039   001e2f 212400          	ld	hl,i_1+36
  1039   001e32 e3              	ex	(sp),hl
  1039   001e33 cd0000          	call	_printcentered
  1039   001e36 c1              	pop	bc
  1039   001e37 219e00          	ld	hl,i_1+158
  1039   001e3a e5              	push	hl
  1039   001e3b cd0000          	call	puts
  1039   001e3e 21c20d          	ld	hl,i_1+3522
  1039   001e41 e3              	ex	(sp),hl
  1039   001e42 cd0000          	call	_printcentered
  1039   001e45 c1              	pop	bc
  1039   001e46 211701          	ld	hl,i_1+279
  1039   001e49 e5              	push	hl
  1039   001e4a cd0000          	call	puts
  1039   001e4d c1              	pop	bc
  1039   001e4e 21ea0b          	ld	hl,i_1+3050
  1039   001e51 e5              	push	hl
  1039   001e52 3e01            	ld	a,1
  1039   001e54 cd0000          	call	printf
  1039   001e57 c1              	pop	bc
  1039   001e58 21d80d          	ld	hl,i_1+3544
  1039   001e5b e5              	push	hl
  1039   001e5c 3e01            	ld	a,1
  1039   001e5e cd0000          	call	printf
  1039   001e61 c1              	pop	bc
  1039   001e62 21f60d          	ld	hl,i_1+3574
  1039   001e65 e5              	push	hl
  1039   001e66 3e01            	ld	a,1
  1039   001e68 cd0000          	call	printf
  1039   001e6b c1              	pop	bc
  1039   001e6c 21080c          	ld	hl,i_1+3080
  1039   001e6f e5              	push	hl
  1039   001e70 3e01            	ld	a,1
  1039   001e72 cd0000          	call	printf
  1039   001e75 c1              	pop	bc
  1039   001e76 210000          	ld	hl,0	;const
  1039   001e79 39              	add	hl,sp
  1039   001e7a e5              	push	hl
  1039   001e7b cd0000          	call	_getbyte
  1039   001e7e 7d              	ld	a,l
  1039   001e7f d1              	pop	de
  1039   001e80 12              	ld	(de),a
  1039   001e81 21140e          	ld	hl,i_1+3604
  1039   001e84 e5              	push	hl
  1039   001e85 3e01            	ld	a,1
  1039   001e87 cd0000          	call	printf
  1039   001e8a c1              	pop	bc
  1039   001e8b 210100          	ld	hl,1	;const
  1039   001e8e 39              	add	hl,sp
  1039   001e8f e5              	push	hl
  1039   001e90 cd0000          	call	_getint
  1039   001e93 d1              	pop	de
  1039   001e94 cd0000          	call	l_pint
  1039   001e97 21210e          	ld	hl,i_1+3617
  1039   001e9a e5              	push	hl
  1039   001e9b 3e01            	ld	a,1
  1039   001e9d cd0000          	call	printf
  1039   001ea0 c1              	pop	bc
  1039   001ea1 210500          	ld	hl,5	;const
  1039   001ea4 39              	add	hl,sp
  1039   001ea5 e5              	push	hl
  1039   001ea6 cd0000          	call	_getstring
  1039   001ea9 c1              	pop	bc
  1039   001eaa 211701          	ld	hl,i_1+279
  1039   001ead e5              	push	hl
  1039   001eae cd0000          	call	puts
  1039   001eb1 211700          	ld	hl,23	;const
  1039   001eb4 e3              	ex	(sp),hl
  1039   001eb5 cd0000          	call	_esp1_outbyte
  1039   001eb8 c1              	pop	bc
  1039   001eb9 210000          	ld	hl,0	;const
  1039   001ebc 39              	add	hl,sp
  1039   001ebd cd0000          	call	l_gchar
  1039   001ec0 e5              	push	hl
  1039   001ec1 cd0000          	call	_esp1_outbyte
  1039   001ec4 c1              	pop	bc
  1039   001ec5 210100          	ld	hl,1	;const
  1039   001ec8 39              	add	hl,sp
  1039   001ec9 cd0000          	call	l_gint	;
  1039   001ecc e5              	push	hl
  1039   001ecd cd0000          	call	_esp1_outint
  1039   001ed0 c1              	pop	bc
  1039                          .i_44
  1039   001ed1 210300          	ld	hl,3	;const
  1039   001ed4 39              	add	hl,sp
  1039   001ed5 cd0000          	call	l_gint	;
  1039   001ed8 7e              	ld	a,(hl)
  1039   001ed9 a7              	and	a
  1039   001eda caf41e          	jp	z,i_45	;
  1039   001edd 210300          	ld	hl,3	;const
  1039   001ee0 39              	add	hl,sp
  1039   001ee1 34              	inc	(hl)
  1039   001ee2 7e              	ld	a,(hl)
  1039   001ee3 23              	inc	hl
  1039   001ee4 2001            	jr	nz,ASMPC+3
  1039   001ee6 34              	inc	(hl)
  1039   001ee7 66              	ld	h,(hl)
  1039   001ee8 6f              	ld	l,a
  1039   001ee9 cd0000          	call	l_gchar
  1039   001eec e5              	push	hl
  1039   001eed cd0000          	call	_esp1_outbyte
  1039   001ef0 c1              	pop	bc
  1039   001ef1 c3d11e          	jp	i_44	;EOS
  1039                          .i_45
  1039   001ef4 210000          	ld	hl,0	;const
  1039   001ef7 e5              	push	hl
  1039   001ef8 cd0000          	call	_esp1_outbyte
  1039   001efb c1              	pop	bc
  1039   001efc 214500          	ld	hl,69	;const
  1039   001eff 39              	add	hl,sp
  1039   001f00 f9              	ld	sp,hl
  1039   001f01 c9              	ret
  1039                          
  1039                          
  1039                          	C_LINE	1066,"testesp.c::create_tcp_connection_test::0::62"
testesp.c::create_tcp_connection_test::0::62:
  1066                          
  1066                          ; Function menu_page1 flags 0x00000200 __smallc
  1066                          ; int menu_page1()
  1066                          	C_LINE	1067,"testesp.c::menu_page1::0::62"
testesp.c::menu_page1::0::62:
  1067                          ._menu_page1
  1067   001f02 3b              	dec	sp
  1067   001f03 211800          	ld	hl,i_1+24
  1067   001f06 e5              	push	hl
  1067   001f07 3e01            	ld	a,1
  1067   001f09 cd0000          	call	printf
  1067   001f0c 212400          	ld	hl,i_1+36
  1067   001f0f e3              	ex	(sp),hl
  1067   001f10 cd0000          	call	_printcentered
  1067   001f13 c1              	pop	bc
  1067   001f14 214100          	ld	hl,i_1+65
  1067   001f17 e5              	push	hl
  1067   001f18 cd0000          	call	puts
  1067   001f1b c1              	pop	bc
  1067   001f1c 213100          	ld	hl,49	;const
  1067   001f1f e5              	push	hl
  1067   001f20 212e0e          	ld	hl,i_1+3630
  1067   001f23 e5              	push	hl
  1067   001f24 214800          	ld	hl,72	;const
  1067   001f27 e5              	push	hl
  1067   001f28 21480e          	ld	hl,i_1+3656
  1067   001f2b e5              	push	hl
  1067   001f2c cd0000          	call	_printmenu
  1067   001f2f c1              	pop	bc
  1067   001f30 c1              	pop	bc
  1067   001f31 c1              	pop	bc
  1067   001f32 c1              	pop	bc
  1067   001f33 213200          	ld	hl,50	;const
  1067   001f36 e5              	push	hl
  1067   001f37 21570e          	ld	hl,i_1+3671
  1067   001f3a e5              	push	hl
  1067   001f3b 214900          	ld	hl,73	;const
  1067   001f3e e5              	push	hl
  1067   001f3f 21760e          	ld	hl,i_1+3702
  1067   001f42 e5              	push	hl
  1067   001f43 cd0000          	call	_printmenu
  1067   001f46 c1              	pop	bc
  1067   001f47 c1              	pop	bc
  1067   001f48 c1              	pop	bc
  1067   001f49 c1              	pop	bc
  1067   001f4a 213300          	ld	hl,51	;const
  1067   001f4d e5              	push	hl
  1067   001f4e 21800e          	ld	hl,i_1+3712
  1067   001f51 e5              	push	hl
  1067   001f52 214a00          	ld	hl,74	;const
  1067   001f55 e5              	push	hl
  1067   001f56 21950e          	ld	hl,i_1+3733
  1067   001f59 e5              	push	hl
  1067   001f5a cd0000          	call	_printmenu
  1067   001f5d c1              	pop	bc
  1067   001f5e c1              	pop	bc
  1067   001f5f c1              	pop	bc
  1067   001f60 c1              	pop	bc
  1067   001f61 213400          	ld	hl,52	;const
  1067   001f64 e5              	push	hl
  1067   001f65 21a40e          	ld	hl,i_1+3748
  1067   001f68 e5              	push	hl
  1067   001f69 214b00          	ld	hl,75	;const
  1067   001f6c e5              	push	hl
  1067   001f6d 21b20e          	ld	hl,i_1+3762
  1067   001f70 e5              	push	hl
  1067   001f71 cd0000          	call	_printmenu
  1067   001f74 c1              	pop	bc
  1067   001f75 c1              	pop	bc
  1067   001f76 c1              	pop	bc
  1067   001f77 c1              	pop	bc
  1067   001f78 213500          	ld	hl,53	;const
  1067   001f7b e5              	push	hl
  1067   001f7c 21be0e          	ld	hl,i_1+3774
  1067   001f7f e5              	push	hl
  1067   001f80 214c00          	ld	hl,76	;const
  1067   001f83 e5              	push	hl
  1067   001f84 21d40e          	ld	hl,i_1+3796
  1067   001f87 e5              	push	hl
  1067   001f88 cd0000          	call	_printmenu
  1067   001f8b c1              	pop	bc
  1067   001f8c c1              	pop	bc
  1067   001f8d c1              	pop	bc
  1067   001f8e c1              	pop	bc
  1067   001f8f 213600          	ld	hl,54	;const
  1067   001f92 e5              	push	hl
  1067   001f93 21de0e          	ld	hl,i_1+3806
  1067   001f96 e5              	push	hl
  1067   001f97 214d00          	ld	hl,77	;const
  1067   001f9a e5              	push	hl
  1067   001f9b 21f40e          	ld	hl,i_1+3828
  1067   001f9e e5              	push	hl
  1067   001f9f cd0000          	call	_printmenu
  1067   001fa2 c1              	pop	bc
  1067   001fa3 c1              	pop	bc
  1067   001fa4 c1              	pop	bc
  1067   001fa5 c1              	pop	bc
  1067   001fa6 210000          	ld	hl,0	;const
  1067   001fa9 e5              	push	hl
  1067   001faa e5              	push	hl
  1067   001fab 214e00          	ld	hl,78	;const
  1067   001fae e5              	push	hl
  1067   001faf 21010f          	ld	hl,i_1+3841
  1067   001fb2 e5              	push	hl
  1067   001fb3 cd0000          	call	_printmenu
  1067   001fb6 c1              	pop	bc
  1067   001fb7 c1              	pop	bc
  1067   001fb8 c1              	pop	bc
  1067   001fb9 c1              	pop	bc
  1067   001fba 213700          	ld	hl,55	;const
  1067   001fbd e5              	push	hl
  1067   001fbe 210c0f          	ld	hl,i_1+3852
  1067   001fc1 e5              	push	hl
  1067   001fc2 214f00          	ld	hl,79	;const
  1067   001fc5 e5              	push	hl
  1067   001fc6 21210f          	ld	hl,i_1+3873
  1067   001fc9 e5              	push	hl
  1067   001fca cd0000          	call	_printmenu
  1067   001fcd c1              	pop	bc
  1067   001fce c1              	pop	bc
  1067   001fcf c1              	pop	bc
  1067   001fd0 c1              	pop	bc
  1067   001fd1 213800          	ld	hl,56	;const
  1067   001fd4 e5              	push	hl
  1067   001fd5 212b0f          	ld	hl,i_1+3883
  1067   001fd8 e5              	push	hl
  1067   001fd9 215000          	ld	hl,80	;const
  1067   001fdc e5              	push	hl
  1067   001fdd 213b0f          	ld	hl,i_1+3899
  1067   001fe0 e5              	push	hl
  1067   001fe1 cd0000          	call	_printmenu
  1067   001fe4 c1              	pop	bc
  1067   001fe5 c1              	pop	bc
  1067   001fe6 c1              	pop	bc
  1067   001fe7 c1              	pop	bc
  1067   001fe8 213900          	ld	hl,57	;const
  1067   001feb e5              	push	hl
  1067   001fec 214a0f          	ld	hl,i_1+3914
  1067   001fef e5              	push	hl
  1067   001ff0 215100          	ld	hl,81	;const
  1067   001ff3 e5              	push	hl
  1067   001ff4 21600f          	ld	hl,i_1+3936
  1067   001ff7 e5              	push	hl
  1067   001ff8 cd0000          	call	_printmenu
  1067   001ffb c1              	pop	bc
  1067   001ffc c1              	pop	bc
  1067   001ffd c1              	pop	bc
  1067   001ffe c1              	pop	bc
  1067   001fff 214100          	ld	hl,65	;const
  1067   002002 e5              	push	hl
  1067   002003 216d0f          	ld	hl,i_1+3949
  1067   002006 e5              	push	hl
  1067   002007 215200          	ld	hl,82	;const
  1067   00200a e5              	push	hl
  1067   00200b 217e0f          	ld	hl,i_1+3966
  1067   00200e e5              	push	hl
  1067   00200f cd0000          	call	_printmenu
  1067   002012 c1              	pop	bc
  1067   002013 c1              	pop	bc
  1067   002014 c1              	pop	bc
  1067   002015 c1              	pop	bc
  1067   002016 214200          	ld	hl,66	;const
  1067   002019 e5              	push	hl
  1067   00201a 218d0f          	ld	hl,i_1+3981
  1067   00201d e5              	push	hl
  1067   00201e 215300          	ld	hl,83	;const
  1067   002021 e5              	push	hl
  1067   002022 21970f          	ld	hl,i_1+3991
  1067   002025 e5              	push	hl
  1067   002026 cd0000          	call	_printmenu
  1067   002029 c1              	pop	bc
  1067   00202a c1              	pop	bc
  1067   00202b c1              	pop	bc
  1067   00202c c1              	pop	bc
  1067   00202d 214300          	ld	hl,67	;const
  1067   002030 e5              	push	hl
  1067   002031 21a10f          	ld	hl,i_1+4001
  1067   002034 e5              	push	hl
  1067   002035 215400          	ld	hl,84	;const
  1067   002038 e5              	push	hl
  1067   002039 21b60f          	ld	hl,i_1+4022
  1067   00203c e5              	push	hl
  1067   00203d cd0000          	call	_printmenu
  1067   002040 c1              	pop	bc
  1067   002041 c1              	pop	bc
  1067   002042 c1              	pop	bc
  1067   002043 c1              	pop	bc
  1067   002044 210000          	ld	hl,0	;const
  1067   002047 e5              	push	hl
  1067   002048 e5              	push	hl
  1067   002049 215500          	ld	hl,85	;const
  1067   00204c e5              	push	hl
  1067   00204d 21c70f          	ld	hl,i_1+4039
  1067   002050 e5              	push	hl
  1067   002051 cd0000          	call	_printmenu
  1067   002054 c1              	pop	bc
  1067   002055 c1              	pop	bc
  1067   002056 c1              	pop	bc
  1067   002057 c1              	pop	bc
  1067   002058 214400          	ld	hl,68	;const
  1067   00205b e5              	push	hl
  1067   00205c 21d40f          	ld	hl,i_1+4052
  1067   00205f e5              	push	hl
  1067   002060 215600          	ld	hl,86	;const
  1067   002063 e5              	push	hl
  1067   002064 21e00f          	ld	hl,i_1+4064
  1067   002067 e5              	push	hl
  1067   002068 cd0000          	call	_printmenu
  1067   00206b c1              	pop	bc
  1067   00206c c1              	pop	bc
  1067   00206d c1              	pop	bc
  1067   00206e c1              	pop	bc
  1067   00206f 214500          	ld	hl,69	;const
  1067   002072 e5              	push	hl
  1067   002073 21ef0f          	ld	hl,i_1+4079
  1067   002076 e5              	push	hl
  1067   002077 215700          	ld	hl,87	;const
  1067   00207a e5              	push	hl
  1067   00207b 21fa0f          	ld	hl,i_1+4090
  1067   00207e e5              	push	hl
  1067   00207f cd0000          	call	_printmenu
  1067   002082 c1              	pop	bc
  1067   002083 c1              	pop	bc
  1067   002084 c1              	pop	bc
  1067   002085 c1              	pop	bc
  1067   002086 214600          	ld	hl,70	;const
  1067   002089 e5              	push	hl
  1067   00208a 210110          	ld	hl,i_1+4097
  1067   00208d e5              	push	hl
  1067   00208e 215800          	ld	hl,88	;const
  1067   002091 e5              	push	hl
  1067   002092 219a04          	ld	hl,i_1+1178
  1067   002095 e5              	push	hl
  1067   002096 cd0000          	call	_printmenu
  1067   002099 c1              	pop	bc
  1067   00209a c1              	pop	bc
  1067   00209b c1              	pop	bc
  1067   00209c c1              	pop	bc
  1067   00209d 214700          	ld	hl,71	;const
  1067   0020a0 e5              	push	hl
  1067   0020a1 210c10          	ld	hl,i_1+4108
  1067   0020a4 e5              	push	hl
  1067   0020a5 215900          	ld	hl,89	;const
  1067   0020a8 e5              	push	hl
  1067   0020a9 211910          	ld	hl,i_1+4121
  1067   0020ac e5              	push	hl
  1067   0020ad cd0000          	call	_printmenu
  1067   0020b0 c1              	pop	bc
  1067   0020b1 c1              	pop	bc
  1067   0020b2 c1              	pop	bc
  1067   0020b3 c1              	pop	bc
  1067   0020b4 215a00          	ld	hl,90	;const
  1067   0020b7 e5              	push	hl
  1067   0020b8 212f10          	ld	hl,i_1+4143
  1067   0020bb e5              	push	hl
  1067   0020bc 210000          	ld	hl,0	;const
  1067   0020bf e5              	push	hl
  1067   0020c0 e5              	push	hl
  1067   0020c1 cd0000          	call	_printmenu
  1067   0020c4 c1              	pop	bc
  1067   0020c5 c1              	pop	bc
  1067   0020c6 c1              	pop	bc
  1067   0020c7 c1              	pop	bc
  1067                          .i_48
  1067   0020c8 214410          	ld	hl,i_1+4164
  1067   0020cb e5              	push	hl
  1067   0020cc 3e01            	ld	a,1
  1067   0020ce cd0000          	call	printf
  1067   0020d1 c1              	pop	bc
  1067   0020d2 210000          	ld	hl,0	;const
  1067   0020d5 39              	add	hl,sp
  1067   0020d6 e5              	push	hl
  1067   0020d7 210000          	ld	hl,__sgoioblk
  1067   0020da e5              	push	hl
  1067   0020db cd0000          	call	fgetc
  1067   0020de c1              	pop	bc
  1067   0020df 7d              	ld	a,l
  1067   0020e0 d1              	pop	de
  1067   0020e1 12              	ld	(de),a
  1067   0020e2 211701          	ld	hl,i_1+279
  1067   0020e5 e5              	push	hl
  1067   0020e6 3e01            	ld	a,1
  1067   0020e8 cd0000          	call	printf
  1067   0020eb c1              	pop	bc
  1067   0020ec 210000          	ld	hl,0	;const
  1067   0020ef 39              	add	hl,sp
  1067   0020f0 e5              	push	hl
  1067   0020f1 cd0000          	call	l_gchar
  1067   0020f4 cd0000          	call	toupper
  1067   0020f7 7d              	ld	a,l
  1067   0020f8 d1              	pop	de
  1067   0020f9 12              	ld	(de),a
  1067   0020fa 210000          	ld	hl,0	;const
  1067   0020fd 39              	add	hl,sp
  1067   0020fe cd0000          	call	l_gchar
  1067                          .i_51
  1067   002101 7d              	ld	a,l
  1067   002102 fe31            	cp	+(49% 256)
  1067   002104 cab421          	jp	z,i_52	;
  1067   002107 fe32            	cp	+(50% 256)
  1067   002109 cabc21          	jp	z,i_53	;
  1067   00210c fe33            	cp	+(51% 256)
  1067   00210e caca21          	jp	z,i_54	;
  1067   002111 fe34            	cp	+(52% 256)
  1067   002113 cad821          	jp	z,i_55	;
  1067   002116 fe35            	cp	+(53% 256)
  1067   002118 cae021          	jp	z,i_56	;
  1067   00211b fe36            	cp	+(54% 256)
  1067   00211d cae621          	jp	z,i_57	;
  1067   002120 fe37            	cp	+(55% 256)
  1067   002122 caee21          	jp	z,i_58	;
  1067   002125 fe38            	cp	+(56% 256)
  1067   002127 caf621          	jp	z,i_59	;
  1067   00212a fe39            	cp	+(57% 256)
  1067   00212c cafe21          	jp	z,i_60	;
  1067   00212f fe41            	cp	+(65% 256)
  1067   002131 ca0622          	jp	z,i_61	;
  1067   002134 fe42            	cp	+(66% 256)
  1067   002136 ca0c22          	jp	z,i_62	;
  1067   002139 fe43            	cp	+(67% 256)
  1067   00213b ca1422          	jp	z,i_63	;
  1067   00213e fe44            	cp	+(68% 256)
  1067   002140 ca1a22          	jp	z,i_64	;
  1067   002143 fe45            	cp	+(69% 256)
  1067   002145 ca2022          	jp	z,i_65	;
  1067   002148 fe46            	cp	+(70% 256)
  1067   00214a ca2822          	jp	z,i_66	;
  1067   00214d fe47            	cp	+(71% 256)
  1067   00214f ca3022          	jp	z,i_67	;
  1067   002152 fe48            	cp	+(72% 256)
  1067   002154 ca3622          	jp	z,i_68	;
  1067   002157 fe49            	cp	+(73% 256)
  1067   002159 ca3e22          	jp	z,i_69	;
  1067   00215c fe4a            	cp	+(74% 256)
  1067   00215e ca4622          	jp	z,i_70	;
  1067   002161 fe4b            	cp	+(75% 256)
  1067   002163 ca4e22          	jp	z,i_71	;
  1067   002166 fe4c            	cp	+(76% 256)
  1067   002168 ca5622          	jp	z,i_72	;
  1067   00216b fe4d            	cp	+(77% 256)
  1067   00216d ca5e22          	jp	z,i_73	;
  1067   002170 fe4e            	cp	+(78% 256)
  1067   002172 ca6622          	jp	z,i_74	;
  1067   002175 fe4f            	cp	+(79% 256)
  1067   002177 ca6e22          	jp	z,i_75	;
  1067   00217a fe50            	cp	+(80% 256)
  1067   00217c ca7622          	jp	z,i_76	;
  1067   00217f fe51            	cp	+(81% 256)
  1067   002181 ca7e22          	jp	z,i_77	;
  1067   002184 fe52            	cp	+(82% 256)
  1067   002186 ca8622          	jp	z,i_78	;
  1067   002189 fe53            	cp	+(83% 256)
  1067   00218b ca8e22          	jp	z,i_79	;
  1067   00218e fe54            	cp	+(84% 256)
  1067   002190 ca9622          	jp	z,i_80	;
  1067   002193 fe55            	cp	+(85% 256)
  1067   002195 ca9e22          	jp	z,i_81	;
  1067   002198 fe56            	cp	+(86% 256)
  1067   00219a caa622          	jp	z,i_82	;
  1067   00219d fe57            	cp	+(87% 256)
  1067   00219f caae22          	jp	z,i_83	;
  1067   0021a2 fe58            	cp	+(88% 256)
  1067   0021a4 cab622          	jp	z,i_84	;
  1067   0021a7 fe59            	cp	+(89% 256)
  1067   0021a9 cabe22          	jp	z,i_85	;
  1067   0021ac fe5a            	cp	+(90% 256)
  1067   0021ae cac322          	jp	z,i_86	;
  1067   0021b1 c3c820          	jp	i_50	;EOS
  1067                          .i_52
  1067   0021b4 cd0000          	call	_send_char_test
  1067   0021b7 210100          	ld	hl,1	;const
  1067   0021ba 33              	inc	sp
  1067   0021bb c9              	ret
  1067                          
  1067                          
  1067                          .i_53
  1067   0021bc cd0000          	call	_send_100_char_test
  1067   0021bf 215b10          	ld	hl,i_1+4187
  1067   0021c2 e5              	push	hl
  1067   0021c3 cd0000          	call	_printmessage
  1067   0021c6 c1              	pop	bc
  1067   0021c7 c3c820          	jp	i_50	;EOS
  1067                          .i_54
  1067   0021ca cd0000          	call	_send_string_test
  1067   0021cd 217010          	ld	hl,i_1+4208
  1067   0021d0 e5              	push	hl
  1067   0021d1 cd0000          	call	_printmessage
  1067   0021d4 c1              	pop	bc
  1067   0021d5 c3c820          	jp	i_50	;EOS
  1067                          .i_55
  1067   0021d8 cd0000          	call	_get_key_test
  1067   0021db 210100          	ld	hl,1	;const
  1067   0021de 33              	inc	sp
  1067   0021df c9              	ret
  1067                          
  1067                          
  1067                          .i_56
  1067   0021e0 cd0000          	call	_get_key_buffer_len_test
  1067   0021e3 c3c820          	jp	i_50	;EOS
  1067                          .i_57
  1067   0021e6 cd0000          	call	_cursor_visibility_test
  1067   0021e9 210100          	ld	hl,1	;const
  1067   0021ec 33              	inc	sp
  1067   0021ed c9              	ret
  1067                          
  1067                          
  1067                          .i_58
  1067   0021ee cd0000          	call	_serial_baud_rate_test
  1067   0021f1 210100          	ld	hl,1	;const
  1067   0021f4 33              	inc	sp
  1067   0021f5 c9              	ret
  1067                          
  1067                          
  1067                          .i_59
  1067   0021f6 cd0000          	call	_serial_mode_test
  1067   0021f9 210100          	ld	hl,1	;const
  1067   0021fc 33              	inc	sp
  1067   0021fd c9              	ret
  1067                          
  1067                          
  1067                          .i_60
  1067   0021fe cd0000          	call	_serial_tx_single_char_test
  1067   002201 210100          	ld	hl,1	;const
  1067   002204 33              	inc	sp
  1067   002205 c9              	ret
  1067                          
  1067                          
  1067                          .i_61
  1067   002206 cd0000          	call	_serial_tx_string_test
  1067   002209 c3c820          	jp	i_50	;EOS
  1067                          .i_62
  1067   00220c cd0000          	call	_serial_rx_test
  1067   00220f 210100          	ld	hl,1	;const
  1067   002212 33              	inc	sp
  1067   002213 c9              	ret
  1067                          
  1067                          
  1067                          .i_63
  1067   002214 cd0000          	call	_serial_length_test
  1067   002217 c3c820          	jp	i_50	;EOS
  1067                          .i_64
  1067   00221a cd0000          	call	_play_string_test
  1067   00221d c3c820          	jp	i_50	;EOS
  1067                          .i_65
  1067   002220 cd0000          	call	_play_sound_test
  1067   002223 210100          	ld	hl,1	;const
  1067   002226 33              	inc	sp
  1067   002227 c9              	ret
  1067                          
  1067                          
  1067                          .i_66
  1067   002228 cd0000          	call	_set_volume_test
  1067   00222b 210100          	ld	hl,1	;const
  1067   00222e 33              	inc	sp
  1067   00222f c9              	ret
  1067                          
  1067                          
  1067                          .i_67
  1067   002230 cd0000          	call	_clear_screen_test
  1067   002233 c3c820          	jp	i_50	;EOS
  1067                          .i_68
  1067   002236 cd1000          	call	_set_resolution_test
  1067   002239 210100          	ld	hl,1	;const
  1067   00223c 33              	inc	sp
  1067   00223d c9              	ret
  1067                          
  1067                          
  1067                          .i_69
  1067   00223e cd6f00          	call	_set_font_test
  1067   002241 210100          	ld	hl,1	;const
  1067   002244 33              	inc	sp
  1067   002245 c9              	ret
  1067                          
  1067                          
  1067                          .i_70
  1067   002246 cdce00          	call	_copy_rectangle_test
  1067   002249 210100          	ld	hl,1	;const
  1067   00224c 33              	inc	sp
  1067   00224d c9              	ret
  1067                          
  1067                          
  1067                          .i_71
  1067   00224e cdd701          	call	_draw_bitmap_test
  1067   002251 210100          	ld	hl,1	;const
  1067   002254 33              	inc	sp
  1067   002255 c9              	ret
  1067                          
  1067                          
  1067                          .i_72
  1067   002256 cd9102          	call	_draw_char_test
  1067   002259 210100          	ld	hl,1	;const
  1067   00225c 33              	inc	sp
  1067   00225d c9              	ret
  1067                          
  1067                          
  1067                          .i_73
  1067   00225e cd6203          	call	_draw_ellipse_test
  1067   002261 210100          	ld	hl,1	;const
  1067   002264 33              	inc	sp
  1067   002265 c9              	ret
  1067                          
  1067                          
  1067                          .i_74
  1067   002266 cd2904          	call	_draw_glyph_test
  1067   002269 210100          	ld	hl,1	;const
  1067   00226c 33              	inc	sp
  1067   00226d c9              	ret
  1067                          
  1067                          
  1067                          .i_75
  1067   00226e cde204          	call	_draw_line_test
  1067   002271 210100          	ld	hl,1	;const
  1067   002274 33              	inc	sp
  1067   002275 c9              	ret
  1067                          
  1067                          
  1067                          .i_76
  1067   002276 cda905          	call	_draw_rectangle_test
  1067   002279 210100          	ld	hl,1	;const
  1067   00227c 33              	inc	sp
  1067   00227d c9              	ret
  1067                          
  1067                          
  1067                          .i_77
  1067   00227e cd7006          	call	_fill_ellipse_test
  1067   002281 210100          	ld	hl,1	;const
  1067   002284 33              	inc	sp
  1067   002285 c9              	ret
  1067                          
  1067                          
  1067                          .i_78
  1067   002286 cd3707          	call	_fill_rectangle_test
  1067   002289 210100          	ld	hl,1	;const
  1067   00228c 33              	inc	sp
  1067   00228d c9              	ret
  1067                          
  1067                          
  1067                          .i_79
  1067   00228e cdfe07          	call	_get_pixel_test
  1067   002291 210100          	ld	hl,1	;const
  1067   002294 33              	inc	sp
  1067   002295 c9              	ret
  1067                          
  1067                          
  1067                          .i_80
  1067   002296 cdff08          	call	_invert_rectangle_test
  1067   002299 210100          	ld	hl,1	;const
  1067   00229c 33              	inc	sp
  1067   00229d c9              	ret
  1067                          
  1067                          
  1067                          .i_81
  1067   00229e cdc609          	call	_draw_line_to_test
  1067   0022a1 210100          	ld	hl,1	;const
  1067   0022a4 33              	inc	sp
  1067   0022a5 c9              	ret
  1067                          
  1067                          
  1067                          .i_82
  1067   0022a6 cd490a          	call	_move_cursor_to_test
  1067   0022a9 210100          	ld	hl,1	;const
  1067   0022ac 33              	inc	sp
  1067   0022ad c9              	ret
  1067                          
  1067                          
  1067                          .i_83
  1067   0022ae cdcc0a          	call	_scroll_test
  1067   0022b1 210100          	ld	hl,1	;const
  1067   0022b4 33              	inc	sp
  1067   0022b5 c9              	ret
  1067                          
  1067                          
  1067                          .i_84
  1067   0022b6 cd4f0b          	call	_set_brush_color_test
  1067   0022b9 210100          	ld	hl,1	;const
  1067   0022bc 33              	inc	sp
  1067   0022bd c9              	ret
  1067                          
  1067                          
  1067                          .i_85
  1067   0022be 210200          	ld	hl,2	;const
  1067   0022c1 33              	inc	sp
  1067   0022c2 c9              	ret
  1067                          
  1067                          
  1067                          .i_86
  1067   0022c3 217d10          	ld	hl,i_1+4221
  1067   0022c6 e5              	push	hl
  1067   0022c7 3e01            	ld	a,1
  1067   0022c9 cd0000          	call	printf
  1067   0022cc c1              	pop	bc
  1067   0022cd 210000          	ld	hl,0	;const
  1067   0022d0 cd0000          	call	exit
  1067   0022d3 c3c820          	jp	i_46	;EOS
  1067                          .i_47
  1067   0022d6 33              	inc	sp
  1067   0022d7 c9              	ret
  1067                          
  1067                          
  1067                          	C_LINE	1213,"testesp.c::menu_page1::0::65"
testesp.c::menu_page1::0::65:
  1213                          
  1213                          ; Function menu_page2 flags 0x00000200 __smallc
  1213                          ; int menu_page2()
  1213                          	C_LINE	1214,"testesp.c::menu_page2::0::65"
testesp.c::menu_page2::0::65:
  1214                          ._menu_page2
  1214   0022d8 3b              	dec	sp
  1214   0022d9 211800          	ld	hl,i_1+24
  1214   0022dc e5              	push	hl
  1214   0022dd 3e01            	ld	a,1
  1214   0022df cd0000          	call	printf
  1214   0022e2 212400          	ld	hl,i_1+36
  1214   0022e5 e3              	ex	(sp),hl
  1214   0022e6 cd0000          	call	_printcentered
  1214   0022e9 c1              	pop	bc
  1214   0022ea 214100          	ld	hl,i_1+65
  1214   0022ed e5              	push	hl
  1214   0022ee cd0000          	call	puts
  1214   0022f1 c1              	pop	bc
  1214   0022f2 213100          	ld	hl,49	;const
  1214   0022f5 e5              	push	hl
  1214   0022f6 219110          	ld	hl,i_1+4241
  1214   0022f9 e5              	push	hl
  1214   0022fa 214800          	ld	hl,72	;const
  1214   0022fd e5              	push	hl
  1214   0022fe 21a310          	ld	hl,i_1+4259
  1214   002301 e5              	push	hl
  1214   002302 cd0000          	call	_printmenu
  1214   002305 c1              	pop	bc
  1214   002306 c1              	pop	bc
  1214   002307 c1              	pop	bc
  1214   002308 c1              	pop	bc
  1214   002309 213200          	ld	hl,50	;const
  1214   00230c e5              	push	hl
  1214   00230d 21fb04          	ld	hl,i_1+1275
  1214   002310 e5              	push	hl
  1214   002311 214900          	ld	hl,73	;const
  1214   002314 e5              	push	hl
  1214   002315 21b010          	ld	hl,i_1+4272
  1214   002318 e5              	push	hl
  1214   002319 cd0000          	call	_printmenu
  1214   00231c c1              	pop	bc
  1214   00231d c1              	pop	bc
  1214   00231e c1              	pop	bc
  1214   00231f c1              	pop	bc
  1214   002320 213300          	ld	hl,51	;const
  1214   002323 e5              	push	hl
  1214   002324 210905          	ld	hl,i_1+1289
  1214   002327 e5              	push	hl
  1214   002328 214a00          	ld	hl,74	;const
  1214   00232b e5              	push	hl
  1214   00232c 21c710          	ld	hl,i_1+4295
  1214   00232f e5              	push	hl
  1214   002330 cd0000          	call	_printmenu
  1214   002333 c1              	pop	bc
  1214   002334 c1              	pop	bc
  1214   002335 c1              	pop	bc
  1214   002336 c1              	pop	bc
  1214   002337 213400          	ld	hl,52	;const
  1214   00233a e5              	push	hl
  1214   00233b 21d510          	ld	hl,i_1+4309
  1214   00233e e5              	push	hl
  1214   00233f 214b00          	ld	hl,75	;const
  1214   002342 e5              	push	hl
  1214   002343 210e08          	ld	hl,i_1+2062
  1214   002346 e5              	push	hl
  1214   002347 cd0000          	call	_printmenu
  1214   00234a c1              	pop	bc
  1214   00234b c1              	pop	bc
  1214   00234c c1              	pop	bc
  1214   00234d c1              	pop	bc
  1214   00234e 213500          	ld	hl,53	;const
  1214   002351 e5              	push	hl
  1214   002352 21df10          	ld	hl,i_1+4319
  1214   002355 e5              	push	hl
  1214   002356 214c00          	ld	hl,76	;const
  1214   002359 e5              	push	hl
  1214   00235a 21f110          	ld	hl,i_1+4337
  1214   00235d e5              	push	hl
  1214   00235e cd0000          	call	_printmenu
  1214   002361 c1              	pop	bc
  1214   002362 c1              	pop	bc
  1214   002363 c1              	pop	bc
  1214   002364 c1              	pop	bc
  1214   002365 213600          	ld	hl,54	;const
  1214   002368 e5              	push	hl
  1214   002369 219906          	ld	hl,i_1+1689
  1214   00236c e5              	push	hl
  1214   00236d 214d00          	ld	hl,77	;const
  1214   002370 e5              	push	hl
  1214   002371 210111          	ld	hl,i_1+4353
  1214   002374 e5              	push	hl
  1214   002375 cd0000          	call	_printmenu
  1214   002378 c1              	pop	bc
  1214   002379 c1              	pop	bc
  1214   00237a c1              	pop	bc
  1214   00237b c1              	pop	bc
  1214   00237c 213700          	ld	hl,55	;const
  1214   00237f e5              	push	hl
  1214   002380 211111          	ld	hl,i_1+4369
  1214   002383 e5              	push	hl
  1214   002384 214e00          	ld	hl,78	;const
  1214   002387 e5              	push	hl
  1214   002388 212211          	ld	hl,i_1+4386
  1214   00238b e5              	push	hl
  1214   00238c cd0000          	call	_printmenu
  1214   00238f c1              	pop	bc
  1214   002390 c1              	pop	bc
  1214   002391 c1              	pop	bc
  1214   002392 c1              	pop	bc
  1214   002393 213800          	ld	hl,56	;const
  1214   002396 e5              	push	hl
  1214   002397 213b11          	ld	hl,i_1+4411
  1214   00239a e5              	push	hl
  1214   00239b 214f00          	ld	hl,79	;const
  1214   00239e e5              	push	hl
  1214   00239f 215511          	ld	hl,i_1+4437
  1214   0023a2 e5              	push	hl
  1214   0023a3 cd0000          	call	_printmenu
  1214   0023a6 c1              	pop	bc
  1214   0023a7 c1              	pop	bc
  1214   0023a8 c1              	pop	bc
  1214   0023a9 c1              	pop	bc
  1214   0023aa 210000          	ld	hl,0	;const
  1214   0023ad e5              	push	hl
  1214   0023ae e5              	push	hl
  1214   0023af 215000          	ld	hl,80	;const
  1214   0023b2 e5              	push	hl
  1214   0023b3 216411          	ld	hl,i_1+4452
  1214   0023b6 e5              	push	hl
  1214   0023b7 cd0000          	call	_printmenu
  1214   0023ba c1              	pop	bc
  1214   0023bb c1              	pop	bc
  1214   0023bc c1              	pop	bc
  1214   0023bd c1              	pop	bc
  1214   0023be 213900          	ld	hl,57	;const
  1214   0023c1 e5              	push	hl
  1214   0023c2 217411          	ld	hl,i_1+4468
  1214   0023c5 e5              	push	hl
  1214   0023c6 215100          	ld	hl,81	;const
  1214   0023c9 e5              	push	hl
  1214   0023ca 218311          	ld	hl,i_1+4483
  1214   0023cd e5              	push	hl
  1214   0023ce cd0000          	call	_printmenu
  1214   0023d1 c1              	pop	bc
  1214   0023d2 c1              	pop	bc
  1214   0023d3 c1              	pop	bc
  1214   0023d4 c1              	pop	bc
  1214   0023d5 214100          	ld	hl,65	;const
  1214   0023d8 e5              	push	hl
  1214   0023d9 218f11          	ld	hl,i_1+4495
  1214   0023dc e5              	push	hl
  1214   0023dd 215200          	ld	hl,82	;const
  1214   0023e0 e5              	push	hl
  1214   0023e1 219e11          	ld	hl,i_1+4510
  1214   0023e4 e5              	push	hl
  1214   0023e5 cd0000          	call	_printmenu
  1214   0023e8 c1              	pop	bc
  1214   0023e9 c1              	pop	bc
  1214   0023ea c1              	pop	bc
  1214   0023eb c1              	pop	bc
  1214   0023ec 214200          	ld	hl,66	;const
  1214   0023ef e5              	push	hl
  1214   0023f0 21ae11          	ld	hl,i_1+4526
  1214   0023f3 e5              	push	hl
  1214   0023f4 215300          	ld	hl,83	;const
  1214   0023f7 e5              	push	hl
  1214   0023f8 21c211          	ld	hl,i_1+4546
  1214   0023fb e5              	push	hl
  1214   0023fc cd0000          	call	_printmenu
  1214   0023ff c1              	pop	bc
  1214   002400 c1              	pop	bc
  1214   002401 c1              	pop	bc
  1214   002402 c1              	pop	bc
  1214   002403 214300          	ld	hl,67	;const
  1214   002406 e5              	push	hl
  1214   002407 21d411          	ld	hl,i_1+4564
  1214   00240a e5              	push	hl
  1214   00240b 215400          	ld	hl,84	;const
  1214   00240e e5              	push	hl
  1214   00240f 21ea11          	ld	hl,i_1+4586
  1214   002412 e5              	push	hl
  1214   002413 cd0000          	call	_printmenu
  1214   002416 c1              	pop	bc
  1214   002417 c1              	pop	bc
  1214   002418 c1              	pop	bc
  1214   002419 c1              	pop	bc
  1214   00241a 210000          	ld	hl,0	;const
  1214   00241d e5              	push	hl
  1214   00241e e5              	push	hl
  1214   00241f 215500          	ld	hl,85	;const
  1214   002422 e5              	push	hl
  1214   002423 21f911          	ld	hl,i_1+4601
  1214   002426 e5              	push	hl
  1214   002427 cd0000          	call	_printmenu
  1214   00242a c1              	pop	bc
  1214   00242b c1              	pop	bc
  1214   00242c c1              	pop	bc
  1214   00242d c1              	pop	bc
  1214   00242e 214400          	ld	hl,68	;const
  1214   002431 e5              	push	hl
  1214   002432 210912          	ld	hl,i_1+4617
  1214   002435 e5              	push	hl
  1214   002436 215600          	ld	hl,86	;const
  1214   002439 e5              	push	hl
  1214   00243a 212012          	ld	hl,i_1+4640
  1214   00243d e5              	push	hl
  1214   00243e cd0000          	call	_printmenu
  1214   002441 c1              	pop	bc
  1214   002442 c1              	pop	bc
  1214   002443 c1              	pop	bc
  1214   002444 c1              	pop	bc
  1214   002445 214500          	ld	hl,69	;const
  1214   002448 e5              	push	hl
  1214   002449 212c12          	ld	hl,i_1+4652
  1214   00244c e5              	push	hl
  1214   00244d 215700          	ld	hl,87	;const
  1214   002450 e5              	push	hl
  1214   002451 213e12          	ld	hl,i_1+4670
  1214   002454 e5              	push	hl
  1214   002455 cd0000          	call	_printmenu
  1214   002458 c1              	pop	bc
  1214   002459 c1              	pop	bc
  1214   00245a c1              	pop	bc
  1214   00245b c1              	pop	bc
  1214   00245c 214600          	ld	hl,70	;const
  1214   00245f e5              	push	hl
  1214   002460 214e12          	ld	hl,i_1+4686
  1214   002463 e5              	push	hl
  1214   002464 215800          	ld	hl,88	;const
  1214   002467 e5              	push	hl
  1214   002468 216612          	ld	hl,i_1+4710
  1214   00246b e5              	push	hl
  1214   00246c cd0000          	call	_printmenu
  1214   00246f c1              	pop	bc
  1214   002470 c1              	pop	bc
  1214   002471 c1              	pop	bc
  1214   002472 c1              	pop	bc
  1214   002473 214700          	ld	hl,71	;const
  1214   002476 e5              	push	hl
  1214   002477 217812          	ld	hl,i_1+4728
  1214   00247a e5              	push	hl
  1214   00247b 215900          	ld	hl,89	;const
  1214   00247e e5              	push	hl
  1214   00247f 218b12          	ld	hl,i_1+4747
  1214   002482 e5              	push	hl
  1214   002483 cd0000          	call	_printmenu
  1214   002486 c1              	pop	bc
  1214   002487 c1              	pop	bc
  1214   002488 c1              	pop	bc
  1214   002489 c1              	pop	bc
  1214   00248a 215a00          	ld	hl,90	;const
  1214   00248d e5              	push	hl
  1214   00248e 21a312          	ld	hl,i_1+4771
  1214   002491 e5              	push	hl
  1214   002492 210000          	ld	hl,0	;const
  1214   002495 e5              	push	hl
  1214   002496 e5              	push	hl
  1214   002497 cd0000          	call	_printmenu
  1214   00249a c1              	pop	bc
  1214   00249b c1              	pop	bc
  1214   00249c c1              	pop	bc
  1214   00249d c1              	pop	bc
  1214                          .i_89
  1214   00249e 214410          	ld	hl,i_1+4164
  1214   0024a1 e5              	push	hl
  1214   0024a2 3e01            	ld	a,1
  1214   0024a4 cd0000          	call	printf
  1214   0024a7 c1              	pop	bc
  1214   0024a8 210000          	ld	hl,0	;const
  1214   0024ab 39              	add	hl,sp
  1214   0024ac e5              	push	hl
  1214   0024ad 210000          	ld	hl,__sgoioblk
  1214   0024b0 e5              	push	hl
  1214   0024b1 cd0000          	call	fgetc
  1214   0024b4 c1              	pop	bc
  1214   0024b5 7d              	ld	a,l
  1214   0024b6 d1              	pop	de
  1214   0024b7 12              	ld	(de),a
  1214   0024b8 211701          	ld	hl,i_1+279
  1214   0024bb e5              	push	hl
  1214   0024bc 3e01            	ld	a,1
  1214   0024be cd0000          	call	printf
  1214   0024c1 c1              	pop	bc
  1214   0024c2 210000          	ld	hl,0	;const
  1214   0024c5 39              	add	hl,sp
  1214   0024c6 e5              	push	hl
  1214   0024c7 cd0000          	call	l_gchar
  1214   0024ca cd0000          	call	toupper
  1214   0024cd 7d              	ld	a,l
  1214   0024ce d1              	pop	de
  1214   0024cf 12              	ld	(de),a
  1214   0024d0 210000          	ld	hl,0	;const
  1214   0024d3 39              	add	hl,sp
  1214   0024d4 cd0000          	call	l_gchar
  1214                          .i_92
  1214   0024d7 7d              	ld	a,l
  1214   0024d8 fe31            	cp	+(49% 256)
  1214   0024da ca8a25          	jp	z,i_93	;
  1214   0024dd fe32            	cp	+(50% 256)
  1214   0024df ca9225          	jp	z,i_94	;
  1214   0024e2 fe33            	cp	+(51% 256)
  1214   0024e4 ca9a25          	jp	z,i_95	;
  1214   0024e7 fe34            	cp	+(52% 256)
  1214   0024e9 caa225          	jp	z,i_96	;
  1214   0024ec fe35            	cp	+(53% 256)
  1214   0024ee caaa25          	jp	z,i_97	;
  1214   0024f1 fe36            	cp	+(54% 256)
  1214   0024f3 cab225          	jp	z,i_98	;
  1214   0024f6 fe37            	cp	+(55% 256)
  1214   0024f8 caba25          	jp	z,i_99	;
  1214   0024fb fe38            	cp	+(56% 256)
  1214   0024fd cac225          	jp	z,i_100	;
  1214   002500 fe39            	cp	+(57% 256)
  1214   002502 caca25          	jp	z,i_101	;
  1214   002505 fe41            	cp	+(65% 256)
  1214   002507 cad825          	jp	z,i_102	;
  1214   00250a fe42            	cp	+(66% 256)
  1214   00250c cae625          	jp	z,i_103	;
  1214   00250f fe43            	cp	+(67% 256)
  1214   002511 caee25          	jp	z,i_104	;
  1214   002514 fe44            	cp	+(68% 256)
  1214   002516 caf625          	jp	z,i_105	;
  1214   002519 fe45            	cp	+(69% 256)
  1214   00251b cafe25          	jp	z,i_106	;
  1214   00251e fe46            	cp	+(70% 256)
  1214   002520 ca0626          	jp	z,i_107	;
  1214   002523 fe47            	cp	+(71% 256)
  1214   002525 ca0e26          	jp	z,i_108	;
  1214   002528 fe48            	cp	+(72% 256)
  1214   00252a ca1426          	jp	z,i_109	;
  1214   00252d fe49            	cp	+(73% 256)
  1214   00252f ca1c26          	jp	z,i_110	;
  1214   002532 fe4a            	cp	+(74% 256)
  1214   002534 ca2226          	jp	z,i_111	;
  1214   002537 fe4b            	cp	+(75% 256)
  1214   002539 ca2a26          	jp	z,i_112	;
  1214   00253c fe4c            	cp	+(76% 256)
  1214   00253e ca3226          	jp	z,i_113	;
  1214   002541 fe4d            	cp	+(77% 256)
  1214   002543 ca4026          	jp	z,i_114	;
  1214   002546 fe4e            	cp	+(78% 256)
  1214   002548 ca4626          	jp	z,i_115	;
  1214   00254b fe4f            	cp	+(79% 256)
  1214   00254d ca4c26          	jp	z,i_116	;
  1214   002550 fe50            	cp	+(80% 256)
  1214   002552 ca5226          	jp	z,i_117	;
  1214   002555 fe51            	cp	+(81% 256)
  1214   002557 ca5826          	jp	z,i_118	;
  1214   00255a fe52            	cp	+(82% 256)
  1214   00255c ca5e26          	jp	z,i_119	;
  1214   00255f fe53            	cp	+(83% 256)
  1214   002561 ca6426          	jp	z,i_120	;
  1214   002564 fe54            	cp	+(84% 256)
  1214   002566 ca6a26          	jp	z,i_121	;
  1214   002569 fe55            	cp	+(85% 256)
  1214   00256b ca7226          	jp	z,i_122	;
  1214   00256e fe56            	cp	+(86% 256)
  1214   002570 ca7a26          	jp	z,i_123	;
  1214   002573 fe57            	cp	+(87% 256)
  1214   002575 ca8226          	jp	z,i_124	;
  1214   002578 fe58            	cp	+(88% 256)
  1214   00257a ca8a26          	jp	z,i_125	;
  1214   00257d fe59            	cp	+(89% 256)
  1214   00257f ca9226          	jp	z,i_126	;
  1214   002582 fe5a            	cp	+(90% 256)
  1214   002584 ca9726          	jp	z,i_127	;
  1214   002587 c39e24          	jp	i_91	;EOS
  1214                          .i_93
  1214   00258a cdad0b          	call	_set_line_end_test
  1214   00258d 210200          	ld	hl,2	;const
  1214   002590 33              	inc	sp
  1214   002591 c9              	ret
  1214                          
  1214                          
  1214                          .i_94
  1214   002592 cd0b0c          	call	_set_pen_color_test
  1214   002595 210200          	ld	hl,2	;const
  1214   002598 33              	inc	sp
  1214   002599 c9              	ret
  1214                          
  1214                          
  1214                          .i_95
  1214   00259a cd690c          	call	_set_pen_width_test
  1214   00259d 210200          	ld	hl,2	;const
  1214   0025a0 33              	inc	sp
  1214   0025a1 c9              	ret
  1214                          
  1214                          
  1214                          .i_96
  1214   0025a2 cdc70c          	call	_set_pixel_test
  1214   0025a5 210200          	ld	hl,2	;const
  1214   0025a8 33              	inc	sp
  1214   0025a9 c9              	ret
  1214                          
  1214                          
  1214                          .i_97
  1214   0025aa cd8e0d          	call	_set_glyph_options_test
  1214   0025ad 210200          	ld	hl,2	;const
  1214   0025b0 33              	inc	sp
  1214   0025b1 c9              	ret
  1214                          
  1214                          
  1214                          .i_98
  1214   0025b2 cdae0e          	call	_set_palette_item_test
  1214   0025b5 210200          	ld	hl,2	;const
  1214   0025b8 33              	inc	sp
  1214   0025b9 c9              	ret
  1214                          
  1214                          
  1214                          .i_99
  1214   0025ba cd6d0f          	call	_set_mouse_cursor_test
  1214   0025bd 210200          	ld	hl,2	;const
  1214   0025c0 33              	inc	sp
  1214   0025c1 c9              	ret
  1214                          
  1214                          
  1214                          .i_100
  1214   0025c2 cdcb0f          	call	_set_mouse_cursor_position_test
  1214   0025c5 210200          	ld	hl,2	;const
  1214   0025c8 33              	inc	sp
  1214   0025c9 c9              	ret
  1214                          
  1214                          
  1214                          .i_101
  1214   0025ca cd9210          	call	_remove_sprites_test
  1214   0025cd 21b912          	ld	hl,i_1+4793
  1214   0025d0 e5              	push	hl
  1214   0025d1 cd0000          	call	_printmessage
  1214   0025d4 c1              	pop	bc
  1214   0025d5 c39e24          	jp	i_91	;EOS
  1214                          .i_102
  1214   0025d8 cd9b10          	call	_set_sprite_map_test
  1214   0025db 21ca12          	ld	hl,i_1+4810
  1214   0025de e5              	push	hl
  1214   0025df cd0000          	call	_printmessage
  1214   0025e2 c1              	pop	bc
  1214   0025e3 c39e24          	jp	i_91	;EOS
  1214                          .i_103
  1214   0025e6 cdf310          	call	_set_sprite_location_test
  1214   0025e9 210200          	ld	hl,2	;const
  1214   0025ec 33              	inc	sp
  1214   0025ed c9              	ret
  1214                          
  1214                          
  1214                          .i_104
  1214   0025ee cdb611          	call	_set_sprite_visibility_test
  1214   0025f1 210200          	ld	hl,2	;const
  1214   0025f4 33              	inc	sp
  1214   0025f5 c9              	ret
  1214                          
  1214                          
  1214                          .i_105
  1214   0025f6 cd0000          	call	_serial2_baud_rate_test
  1214   0025f9 210200          	ld	hl,2	;const
  1214   0025fc 33              	inc	sp
  1214   0025fd c9              	ret
  1214                          
  1214                          
  1214                          .i_106
  1214   0025fe cd0000          	call	_serial2_mode_test
  1214   002601 210200          	ld	hl,2	;const
  1214   002604 33              	inc	sp
  1214   002605 c9              	ret
  1214                          
  1214                          
  1214                          .i_107
  1214   002606 cd0000          	call	_serial2_tx_single_char_test
  1214   002609 210200          	ld	hl,2	;const
  1214   00260c 33              	inc	sp
  1214   00260d c9              	ret
  1214                          
  1214                          
  1214                          .i_108
  1214   00260e cd0000          	call	_serial2_tx_string_test
  1214   002611 c39e24          	jp	i_91	;EOS
  1214                          .i_109
  1214   002614 cd0000          	call	_serial2_rx_test
  1214   002617 210200          	ld	hl,2	;const
  1214   00261a 33              	inc	sp
  1214   00261b c9              	ret
  1214                          
  1214                          
  1214                          .i_110
  1214   00261c cd0000          	call	_serial2_length_test
  1214   00261f c39e24          	jp	i_91	;EOS
  1214                          .i_111
  1214   002622 cd3f12          	call	_set_wifi_ssid_test
  1214   002625 210200          	ld	hl,2	;const
  1214   002628 33              	inc	sp
  1214   002629 c9              	ret
  1214                          
  1214                          
  1214                          .i_112
  1214   00262a cdb512          	call	_set_wifi_password_test
  1214   00262d 210200          	ld	hl,2	;const
  1214   002630 33              	inc	sp
  1214   002631 c9              	ret
  1214                          
  1214                          
  1214                          .i_113
  1214   002632 cd2b13          	call	_connect_to_wifi_test
  1214   002635 21de12          	ld	hl,i_1+4830
  1214   002638 e5              	push	hl
  1214   002639 cd0000          	call	_printmessage
  1214   00263c c1              	pop	bc
  1214   00263d c39e24          	jp	i_91	;EOS
  1214                          .i_114
  1214   002640 cd3413          	call	_get_wifi_status_test
  1214   002643 c39e24          	jp	i_91	;EOS
  1214                          .i_115
  1214   002646 cd6f13          	call	_get_wifi_signal_strength_test
  1214   002649 c39e24          	jp	i_91	;EOS
  1214                          .i_116
  1214   00264c cda013          	call	_get_ip_address_test
  1214   00264f c39e24          	jp	i_91	;EOS
  1214                          .i_117
  1214   002652 cd0914          	call	_get_subnet_mask_test
  1214   002655 c39e24          	jp	i_91	;EOS
  1214                          .i_118
  1214   002658 cd7214          	call	_get_gateway_test
  1214   00265b c39e24          	jp	i_91	;EOS
  1214                          .i_119
  1214   00265e cddb14          	call	_get_primary_dns_test
  1214   002661 c39e24          	jp	i_91	;EOS
  1214                          .i_120
  1214   002664 cd4415          	call	_get_secondary_dns_test
  1214   002667 c39e24          	jp	i_91	;EOS
  1214                          .i_121
  1214   00266a cdad15          	call	_set_ip_address_test
  1214   00266d 210200          	ld	hl,2	;const
  1214   002670 33              	inc	sp
  1214   002671 c9              	ret
  1214                          
  1214                          
  1214                          .i_122
  1214   002672 cd8e16          	call	_set_subnet_mask_test
  1214   002675 210200          	ld	hl,2	;const
  1214   002678 33              	inc	sp
  1214   002679 c9              	ret
  1214                          
  1214                          
  1214                          .i_123
  1214   00267a cd6f17          	call	_set_gateway_test
  1214   00267d 210200          	ld	hl,2	;const
  1214   002680 33              	inc	sp
  1214   002681 c9              	ret
  1214                          
  1214                          
  1214                          .i_124
  1214   002682 cd5018          	call	_set_primary_dns_test
  1214   002685 210200          	ld	hl,2	;const
  1214   002688 33              	inc	sp
  1214   002689 c9              	ret
  1214                          
  1214                          
  1214                          .i_125
  1214   00268a cd3119          	call	_set_secondary_dns_test
  1214   00268d 210200          	ld	hl,2	;const
  1214   002690 33              	inc	sp
  1214   002691 c9              	ret
  1214                          
  1214                          
  1214                          .i_126
  1214   002692 210300          	ld	hl,3	;const
  1214   002695 33              	inc	sp
  1214   002696 c9              	ret
  1214                          
  1214                          
  1214                          .i_127
  1214   002697 210100          	ld	hl,1	;const
  1214   00269a 33              	inc	sp
  1214   00269b c9              	ret
  1214                          .i_88
  1214   00269c 33              	inc	sp
  1214   00269d c9              	ret
  1214                          
  1214                          
  1214                          	C_LINE	1360,"testesp.c::menu_page2::0::68"
testesp.c::menu_page2::0::68:
  1360                          
  1360                          ; Function menu_page3 flags 0x00000200 __smallc
  1360                          ; int menu_page3()
  1360                          	C_LINE	1361,"testesp.c::menu_page3::0::68"
testesp.c::menu_page3::0::68:
  1361                          ._menu_page3
  1361   00269e 3b              	dec	sp
  1361   00269f 211800          	ld	hl,i_1+24
  1361   0026a2 e5              	push	hl
  1361   0026a3 3e01            	ld	a,1
  1361   0026a5 cd0000          	call	printf
  1361   0026a8 212400          	ld	hl,i_1+36
  1361   0026ab e3              	ex	(sp),hl
  1361   0026ac cd0000          	call	_printcentered
  1361   0026af c1              	pop	bc
  1361   0026b0 214100          	ld	hl,i_1+65
  1361   0026b3 e5              	push	hl
  1361   0026b4 cd0000          	call	puts
  1361   0026b7 c1              	pop	bc
  1361   0026b8 213100          	ld	hl,49	;const
  1361   0026bb e5              	push	hl
  1361   0026bc 21f212          	ld	hl,i_1+4850
  1361   0026bf e5              	push	hl
  1361   0026c0 210000          	ld	hl,0	;const
  1361   0026c3 e5              	push	hl
  1361   0026c4 e5              	push	hl
  1361   0026c5 cd0000          	call	_printmenu
  1361   0026c8 c1              	pop	bc
  1361   0026c9 c1              	pop	bc
  1361   0026ca c1              	pop	bc
  1361   0026cb c1              	pop	bc
  1361   0026cc 213200          	ld	hl,50	;const
  1361   0026cf e5              	push	hl
  1361   0026d0 21ff12          	ld	hl,i_1+4863
  1361   0026d3 e5              	push	hl
  1361   0026d4 210000          	ld	hl,0	;const
  1361   0026d7 e5              	push	hl
  1361   0026d8 e5              	push	hl
  1361   0026d9 cd0000          	call	_printmenu
  1361   0026dc c1              	pop	bc
  1361   0026dd c1              	pop	bc
  1361   0026de c1              	pop	bc
  1361   0026df c1              	pop	bc
  1361   0026e0 214100          	ld	hl,i_1+65
  1361   0026e3 e5              	push	hl
  1361   0026e4 cd0000          	call	puts
  1361   0026e7 c1              	pop	bc
  1361   0026e8 213300          	ld	hl,51	;const
  1361   0026eb e5              	push	hl
  1361   0026ec 211113          	ld	hl,i_1+4881
  1361   0026ef e5              	push	hl
  1361   0026f0 210000          	ld	hl,0	;const
  1361   0026f3 e5              	push	hl
  1361   0026f4 e5              	push	hl
  1361   0026f5 cd0000          	call	_printmenu
  1361   0026f8 c1              	pop	bc
  1361   0026f9 c1              	pop	bc
  1361   0026fa c1              	pop	bc
  1361   0026fb c1              	pop	bc
  1361   0026fc 213400          	ld	hl,52	;const
  1361   0026ff e5              	push	hl
  1361   002700 212813          	ld	hl,i_1+4904
  1361   002703 e5              	push	hl
  1361   002704 210000          	ld	hl,0	;const
  1361   002707 e5              	push	hl
  1361   002708 e5              	push	hl
  1361   002709 cd0000          	call	_printmenu
  1361   00270c c1              	pop	bc
  1361   00270d c1              	pop	bc
  1361   00270e c1              	pop	bc
  1361   00270f c1              	pop	bc
  1361   002710 213500          	ld	hl,53	;const
  1361   002713 e5              	push	hl
  1361   002714 214113          	ld	hl,i_1+4929
  1361   002717 e5              	push	hl
  1361   002718 210000          	ld	hl,0	;const
  1361   00271b e5              	push	hl
  1361   00271c e5              	push	hl
  1361   00271d cd0000          	call	_printmenu
  1361   002720 c1              	pop	bc
  1361   002721 c1              	pop	bc
  1361   002722 c1              	pop	bc
  1361   002723 c1              	pop	bc
  1361   002724 213600          	ld	hl,54	;const
  1361   002727 e5              	push	hl
  1361   002728 215913          	ld	hl,i_1+4953
  1361   00272b e5              	push	hl
  1361   00272c 210000          	ld	hl,0	;const
  1361   00272f e5              	push	hl
  1361   002730 e5              	push	hl
  1361   002731 cd0000          	call	_printmenu
  1361   002734 c1              	pop	bc
  1361   002735 c1              	pop	bc
  1361   002736 c1              	pop	bc
  1361   002737 c1              	pop	bc
  1361   002738 214100          	ld	hl,i_1+65
  1361   00273b e5              	push	hl
  1361   00273c cd0000          	call	puts
  1361   00273f c1              	pop	bc
  1361   002740 213700          	ld	hl,55	;const
  1361   002743 e5              	push	hl
  1361   002744 217513          	ld	hl,i_1+4981
  1361   002747 e5              	push	hl
  1361   002748 210000          	ld	hl,0	;const
  1361   00274b e5              	push	hl
  1361   00274c e5              	push	hl
  1361   00274d cd0000          	call	_printmenu
  1361   002750 c1              	pop	bc
  1361   002751 c1              	pop	bc
  1361   002752 c1              	pop	bc
  1361   002753 c1              	pop	bc
  1361   002754 214100          	ld	hl,i_1+65
  1361   002757 e5              	push	hl
  1361   002758 cd0000          	call	puts
  1361   00275b c1              	pop	bc
  1361   00275c 213800          	ld	hl,56	;const
  1361   00275f e5              	push	hl
  1361   002760 21aa13          	ld	hl,i_1+5034
  1361   002763 e5              	push	hl
  1361   002764 210000          	ld	hl,0	;const
  1361   002767 e5              	push	hl
  1361   002768 e5              	push	hl
  1361   002769 cd0000          	call	_printmenu
  1361   00276c c1              	pop	bc
  1361   00276d c1              	pop	bc
  1361   00276e c1              	pop	bc
  1361   00276f c1              	pop	bc
  1361   002770 214100          	ld	hl,i_1+65
  1361   002773 e5              	push	hl
  1361   002774 cd0000          	call	puts
  1361   002777 c1              	pop	bc
  1361   002778 215a00          	ld	hl,90	;const
  1361   00277b e5              	push	hl
  1361   00277c 211910          	ld	hl,i_1+4121
  1361   00277f e5              	push	hl
  1361   002780 210000          	ld	hl,0	;const
  1361   002783 e5              	push	hl
  1361   002784 e5              	push	hl
  1361   002785 cd0000          	call	_printmenu
  1361   002788 c1              	pop	bc
  1361   002789 c1              	pop	bc
  1361   00278a c1              	pop	bc
  1361   00278b c1              	pop	bc
  1361                          .i_130
  1361   00278c 214410          	ld	hl,i_1+4164
  1361   00278f e5              	push	hl
  1361   002790 3e01            	ld	a,1
  1361   002792 cd0000          	call	printf
  1361   002795 c1              	pop	bc
  1361   002796 210000          	ld	hl,0	;const
  1361   002799 39              	add	hl,sp
  1361   00279a e5              	push	hl
  1361   00279b 210000          	ld	hl,__sgoioblk
  1361   00279e e5              	push	hl
  1361   00279f cd0000          	call	fgetc
  1361   0027a2 c1              	pop	bc
  1361   0027a3 7d              	ld	a,l
  1361   0027a4 d1              	pop	de
  1361   0027a5 12              	ld	(de),a
  1361   0027a6 211701          	ld	hl,i_1+279
  1361   0027a9 e5              	push	hl
  1361   0027aa 3e01            	ld	a,1
  1361   0027ac cd0000          	call	printf
  1361   0027af c1              	pop	bc
  1361   0027b0 210000          	ld	hl,0	;const
  1361   0027b3 39              	add	hl,sp
  1361   0027b4 e5              	push	hl
  1361   0027b5 cd0000          	call	l_gchar
  1361   0027b8 cd0000          	call	toupper
  1361   0027bb 7d              	ld	a,l
  1361   0027bc d1              	pop	de
  1361   0027bd 12              	ld	(de),a
  1361   0027be 210000          	ld	hl,0	;const
  1361   0027c1 39              	add	hl,sp
  1361   0027c2 cd0000          	call	l_gchar
  1361                          .i_133
  1361   0027c5 7d              	ld	a,l
  1361   0027c6 fe31            	cp	+(49% 256)
  1361   0027c8 caf627          	jp	z,i_134	;
  1361   0027cb fe32            	cp	+(50% 256)
  1361   0027cd cafe27          	jp	z,i_135	;
  1361   0027d0 fe33            	cp	+(51% 256)
  1361   0027d2 ca0628          	jp	z,i_136	;
  1361   0027d5 fe34            	cp	+(52% 256)
  1361   0027d7 ca0e28          	jp	z,i_137	;
  1361   0027da fe35            	cp	+(53% 256)
  1361   0027dc ca1628          	jp	z,i_138	;
  1361   0027df fe36            	cp	+(54% 256)
  1361   0027e1 ca1e28          	jp	z,i_139	;
  1361   0027e4 fe37            	cp	+(55% 256)
  1361   0027e6 ca2628          	jp	z,i_140	;
  1361   0027e9 fe38            	cp	+(56% 256)
  1361   0027eb ca3428          	jp	z,i_141	;
  1361   0027ee fe5a            	cp	+(90% 256)
  1361   0027f0 ca3c28          	jp	z,i_142	;
  1361   0027f3 c38c27          	jp	i_132	;EOS
  1361                          .i_134
  1361   0027f6 cd121a          	call	_set_hostname_test
  1361   0027f9 210300          	ld	hl,3	;const
  1361   0027fc 33              	inc	sp
  1361   0027fd c9              	ret
  1361                          
  1361                          
  1361                          .i_135
  1361   0027fe cd881a          	call	_set_incoming_port_test
  1361   002801 210300          	ld	hl,3	;const
  1361   002804 33              	inc	sp
  1361   002805 c9              	ret
  1361                          
  1361                          
  1361                          .i_136
  1361   002806 cde21a          	call	_out_byte_to_connection_test
  1361   002809 210300          	ld	hl,3	;const
  1361   00280c 33              	inc	sp
  1361   00280d c9              	ret
  1361                          
  1361                          
  1361                          .i_137
  1361   00280e cdae1b          	call	_out_string_to_connection_test
  1361   002811 210300          	ld	hl,3	;const
  1361   002814 33              	inc	sp
  1361   002815 c9              	ret
  1361                          
  1361                          
  1361                          .i_138
  1361   002816 cd451c          	call	_in_byte_from_connection_test
  1361   002819 210300          	ld	hl,3	;const
  1361   00281c 33              	inc	sp
  1361   00281d c9              	ret
  1361                          
  1361                          
  1361                          .i_139
  1361   00281e cd4d1d          	call	_queue_length_from_connection_test
  1361   002821 210300          	ld	hl,3	;const
  1361   002824 33              	inc	sp
  1361   002825 c9              	ret
  1361                          
  1361                          
  1361                          .i_140
  1361   002826 cdd91d          	call	_set_byte_mode_test
  1361   002829 21c913          	ld	hl,i_1+5065
  1361   00282c e5              	push	hl
  1361   00282d cd0000          	call	_printmessage
  1361   002830 c1              	pop	bc
  1361   002831 c38c27          	jp	i_132	;EOS
  1361                          .i_141
  1361   002834 cd1e1e          	call	_create_tcp_connection_test
  1361   002837 210300          	ld	hl,3	;const
  1361   00283a 33              	inc	sp
  1361   00283b c9              	ret
  1361                          
  1361                          
  1361                          .i_142
  1361   00283c 210200          	ld	hl,2	;const
  1361   00283f 33              	inc	sp
  1361   002840 c9              	ret
  1361                          .i_129
  1361   002841 33              	inc	sp
  1361   002842 c9              	ret
  1361                          
  1361                          
  1361                          	C_LINE	1422,"testesp.c::menu_page3::0::71"
testesp.c::menu_page3::0::71:
  1422                          
  1422                          ; Function main flags 0x00000000 __stdc
  1422                          ; int main()
  1422                          	C_LINE	1423,"testesp.c::main::0::72"
testesp.c::main::0::72:
  1423                          ._main
  1423   002843 210100          	ld	hl,1	;const
  1423   002846 e5              	push	hl
  1423   002847 2e0c            	ld	l,12
  1423   002849 e5              	push	hl
  1423   00284a 210000          	ld	hl,0	;const
  1423   00284d e5              	push	hl
  1423   00284e cd0000          	call	bdos
  1423   002851 c1              	pop	bc
  1423   002852 c1              	pop	bc
  1423   002853 220000          	ld	(_cpm_ver),hl
  1423   002856 7c              	ld	a,h
  1423   002857 b5              	or	l
  1423   002858 ca6828          	jp	z,i_144	;
  1423   00285b 2a0000          	ld	hl,(_cpm_ver)
  1423   00285e 112f00          	ld	de,47
  1423   002861 eb              	ex	de,hl
  1423   002862 cd0000          	call	l_gt
  1423   002865 d28828          	jp	nc,i_143	;
  1423                          .i_144
  1423   002868 21dd13          	ld	hl,i_1+5085
  1423   00286b e5              	push	hl
  1423   00286c 2a0000          	ld	hl,(_cpm_ver)
  1423   00286f 110400          	ld	de,4
  1423   002872 cd0000          	call	l_asr_hl_by_e
  1423   002875 e5              	push	hl
  1423   002876 2a0000          	ld	hl,(_cpm_ver)
  1423   002879 7d              	ld	a,l
  1423   00287a e60f            	and	15
  1423   00287c 6f              	ld	l,a
  1423   00287d 2600            	ld	h,0
  1423   00287f e5              	push	hl
  1423   002880 3e03            	ld	a,3
  1423   002882 cd0000          	call	printf
  1423   002885 c1              	pop	bc
  1423   002886 c1              	pop	bc
  1423   002887 c1              	pop	bc
  1423                          .i_148
  1423   002888 e1              	pop	hl
  1423   002889 e5              	push	hl
  1423                          .i_151
  1423   00288a cd0000          	call	l_case
  1423   00288d 9e28            	defw	i_152
  1423   00288f 0100            	defw	1
  1423   002891 a628            	defw	i_153
  1423   002893 0200            	defw	2
  1423   002895 ae28            	defw	i_154
  1423   002897 0300            	defw	3
  1423   002899 0000            	defw	0
  1423   00289b c3b628          	jp	i_155	;EOS
  1423                          .i_152
  1423   00289e cd021f          	call	_menu_page1
  1423   0028a1 c1              	pop	bc
  1423   0028a2 e5              	push	hl
  1423   0028a3 c38828          	jp	i_150	;EOS
  1423                          .i_153
  1423   0028a6 cdd822          	call	_menu_page2
  1423   0028a9 c1              	pop	bc
  1423   0028aa e5              	push	hl
  1423   0028ab c38828          	jp	i_150	;EOS
  1423                          .i_154
  1423   0028ae cd9e26          	call	_menu_page3
  1423   0028b1 c1              	pop	bc
  1423   0028b2 e5              	push	hl
  1423   0028b3 c38828          	jp	i_150	;EOS
  1423                          .i_155
  1423   0028b6 cd021f          	call	_menu_page1
  1423   0028b9 c1              	pop	bc
  1423   0028ba e5              	push	hl
  1423   0028bb c38828          	jp	i_146	;EOS
  1423                          .i_147
  1423   0028be 210000          	ld	hl,0	;const
  1423   0028c1 c1              	pop	bc
  1423   0028c2 c9              	ret
  1423                          
  1423                          
  1423                          ; --- Start of Optimiser additions ---
  1423                          	defc	i_33 = i_32
  1423                          	defc	i_46 = i_48
  1423                          	defc	i_87 = i_89
  1423                          	defc	i_128 = i_130
  1423                          	defc	i_146 = i_148
  1423                          	defc	i_7 = i_6
  1423                          	defc	i_12 = i_11
  1423                          	defc	i_17 = i_16
  1423                          	defc	i_22 = i_21
  1423                          	defc	i_32 = i_30
  1423                          	defc	i_38 = i_36
  1423                          	defc	i_50 = i_46
  1423                          	defc	i_91 = i_87
  1423                          	defc	i_132 = i_128
  1423                          	defc	i_143 = i_148
  1423                          	defc	i_150 = i_146
  1423                          
  1423                          	SECTION	rodata_compiler
  1423                          .i_1
  1423   000000 4553000000000000	defm	"ESP VGA Screen cleared."
                0000000000000000
                00000000000018  
  1423   000017 00              	defb	0
  1423                          
  1423                          	defm	""
  1423   000018 1b              	defb	27
  1423                          
  1423   000019 0001ff          	defm	"[2J"
  1423   00001c 1b              	defb	27
  1423                          
  1423   00001d 000024          	defm	"[0m"
  1423   000020 1b              	defb	27
  1423                          
  1423   000021 0000            	defm	"[H"
  1423   000023 00              	defb	0
  1423                          
  1423   000024 0000004100000000	defm	"Nhyodyne ESP32 IO board test"
                0000430000000000
                0000410000000000
                00560000        
  1423   000040 00              	defb	0
  1423                          
  1423   000041 00              	defm	" "
  1423   000042 00              	defb	0
  1423                          
  1423   000043 0000860000000100	defm	"Set VGA Resolution"
                0000000000000000
                ff00            
  1423   000055 00              	defb	0
  1423                          
  1423   000056 ccff00000f00805e	defm	"See VGA resolution identifiers"
                0000000000000000
                0000000000000000
                000000000000    
  1423   000074 0018000000010000	defm	" in documentation"
                0000240000000000
                00              
  1423   000085 00              	defb	0
  1423                          
  1423                          	defm	""
  1423   000086 1b              	defb	27
  1423                          
  1423   000087 000000000000a300	defm	"[17;10HVGA Resolution->"
                00000000ffb74100
                ff9c0000ffb000  
  1423   00009e 1b              	defb	27
  1423                          
  1423   00009f ff0000          	defm	"[1m"
  1423   0000a2 00              	defb	0
  1423                          
  1423   0000a3 ffda000000010000	defm	"Set VGA Font"
                00000000        
  1423   0000af 00              	defb	0
  1423                          
  1423   0000b0 0000000000000000	defm	"See VGA font identifiers in do"
                0010000000000000
                0000000000000000
                000000000000    
  1423   0000ce 00f4ff0000001800	defm	"cumentation"
                00ff01          
  1423   0000d9 00              	defb	0
  1423                          
  1423                          	defm	""
  1423   0000da 1b              	defb	27
  1423                          
  1423   0000db 009c2400ffb70000	defm	"[17;10HVGA Font->"
                ff009e00ff000000
                ff              
  1423   0000ec 1b              	defb	27
  1423                          
  1423   0000ed 0000ff          	defm	"[1m"
  1423   0000f0 00              	defb	0
  1423                          
  1423   0000f1 0000001701000000	defm	"Copy Rectangle on VGA to new l"
                0000ff1c0100ff01
                0000000000310100
                000100000000    
  1423   00010f 00460100000100  	defm	"ocation"
  1423   000116 00              	defb	0
  1423                          
  1423                          	defm	""
  1423   000117 1b              	defb	27
  1423                          
  1423   000118 00005b          	defm	"[0m"
  1423   00011b 00              	defb	0
  1423                          
  1423                          	defm	""
  1423   00011c 1b              	defb	27
  1423                          
  1423   00011d 0001ff0000baff70	defm	"[11;3HSource X   ->"
                01baff01b50000b7
                b58501          
  1423   000130 00              	defb	0
  1423                          
  1423                          	defm	""
  1423   000131 1b              	defb	27
  1423                          
  1423   000132 01ff000000ff9a01	defm	"[12;3HSource Y   ->"
                e6ff010000000000
                000000          
  1423   000145 00              	defb	0
  1423                          
  1423                          	defm	""
  1423   000146 1b              	defb	27
  1423                          
  1423   000147 00000000000000a7	defm	"[13;3HDest X     ->"
                0100000100000000
                ff0200          
  1423   00015a 00              	defb	0
  1423                          
  1423                          	defm	""
  1423   00015b 1b              	defb	27
  1423                          
  1423   00015c 000000ff000000ff	defm	"[14;3HDest Y     ->"
                b401ccff019a0000
                9c9a04          
  1423   00016f 00              	defb	0
  1423                          
  1423                          	defm	""
  1423   000170 1b              	defb	27
  1423                          
  1423   000171 b5cc0000b5cc0000	defm	"[15;3HWidth      ->"
                dbc101000001ff00
                000000          
  1423   000184 00              	defb	0
  1423                          
  1423                          	defm	""
  1423   000185 1b              	defb	27
  1423                          
  1423   000186 0000000000000000	defm	"[16;3HHeight     ->"
                0000ce0100000100
                000080          
  1423   000199 00              	defb	0
  1423                          
  1423                          	defm	""
  1423   00019a 1b              	defb	27
  1423                          
  1423   00019b 00000000000000  	defm	"[11;18H"
  1423   0001a2 1b              	defb	27
  1423                          
  1423   0001a3 000000          	defm	"[1m"
  1423   0001a6 00              	defb	0
  1423                          
  1423                          	defm	""
  1423   0001a7 1b              	defb	27
  1423                          
  1423   0001a8 9c9a01ff0000ba  	defm	"[12;18H"
  1423   0001af 1b              	defb	27
  1423                          
  1423   0001b0 0a00ba          	defm	"[1m"
  1423   0001b3 00              	defb	0
  1423                          
  1423                          	defm	""
  1423   0001b4 1b              	defb	27
  1423                          
  1423   0001b5 0000ffdc0000ff  	defm	"[13;18H"
  1423   0001bc 1b              	defb	27
  1423                          
  1423   0001bd 0000ff          	defm	"[1m"
  1423   0001c0 00              	defb	0
  1423                          
  1423                          	defm	""
  1423   0001c1 1b              	defb	27
  1423                          
  1423   0001c2 00000000000000  	defm	"[14;18H"
  1423   0001c9 1b              	defb	27
  1423                          
  1423   0001ca 000000          	defm	"[1m"
  1423   0001cd 00              	defb	0
  1423                          
  1423                          	defm	""
  1423   0001ce 1b              	defb	27
  1423                          
  1423   0001cf 0000000c00805e  	defm	"[15;18H"
  1423   0001d6 1b              	defb	27
  1423                          
  1423   0001d7 fff5ff          	defm	"[1m"
  1423   0001da 00              	defb	0
  1423                          
  1423                          	defm	""
  1423   0001db 1b              	defb	27
  1423                          
  1423   0001dc 001800ff000100  	defm	"[16;18H"
  1423   0001e3 1b              	defb	27
  1423                          
  1423   0001e4 000024          	defm	"[1m"
  1423   0001e7 00              	defb	0
  1423                          
  1423   0001e8 9c9a00009c9a9e00	defm	"Draw Bitmap on VGA"
                9c9a0000dce801ff
                0000            
  1423   0001fa 00              	defb	0
  1423                          
  1423                          	defm	""
  1423   0001fb 1b              	defb	27
  1423                          
  1423   0001fc 0017010000000000	defm	"[11;3HX          ->"
                00fb010000010000
                000000          
  1423   00020f 00              	defb	0
  1423                          
  1423                          	defm	""
  1423   000210 1b              	defb	27
  1423                          
  1423   000211 0000013f0000ff00	defm	"[12;3HY          ->"
                9a01ff0001000000
                000000          
  1423   000224 00              	defb	0
  1423                          
  1423   000225 0000ff0000baff00	defm	"Draw Character on VGA"
                00baa701b5cc01dc
                0000ff0002      
  1423   00023a 00              	defb	0
  1423                          
  1423                          	defm	""
  1423   00023b 1b              	defb	27
  1423                          
  1423   00023c 0000000000000000	defm	"[13;3HChar       ->"
                0004000000100000
                000006          
  1423   00024f 00              	defb	0
  1423                          
  1423                          	defm	""
  1423   000250 1b              	defb	27
  1423                          
  1423   000251 5e0fff3f00160800	defm	"[14;3HFont       ->"
                0000ff0004000009
                000000          
  1423   000264 00              	defb	0
  1423                          
  1423   000265 000003b71300ffb7	defm	"Draw Ellipse on VGA"
                0000ffdc0000ff00
                000b00          
  1423   000278 00              	defb	0
  1423                          
  1423                          	defm	""
  1423   000279 1b              	defb	27
  1423                          
  1423   00027a 0000000000000000	defm	"[13;3HWidth      ->"
                00c0030000000000
                00000b          
  1423   00028d 00              	defb	0
  1423                          
  1423                          	defm	""
  1423   00028e 1b              	defb	27
  1423                          
  1423   00028f ff805ee4ff3f2c16	defm	"[14;3HHeight     ->"
                1800000001000000
                002400          
  1423   0002a2 00              	defb	0
  1423                          
  1423   0002a3 ff0000e6ff9e00e6	defm	"Draw Glyph on VGA"
                ff0000e625020000
                00              
  1423   0002b4 00              	defb	0
  1423                          
  1423   0002b5 0000170100000000	defm	"Draw line on VGA"
                0000fb0100000100
  1423   0002c5 00              	defb	0
  1423                          
  1423                          	defm	""
  1423   0002c6 1b              	defb	27
  1423                          
  1423   0002c7 ff001002ff80014d	defm	"[11;3HStart  X   ->"
                00002c163b020000
                010000          
  1423   0002da 00              	defb	0
  1423                          
  1423                          	defm	""
  1423   0002db 1b              	defb	27
  1423                          
  1423   0002dc 0050020000010000	defm	"[12;3HStart  Y   ->"
                00dbe69a01000001
                000000          
  1423   0002ef 00              	defb	0
  1423                          
  1423                          	defm	""
  1423   0002f0 1b              	defb	27
  1423                          
  1423   0002f1 1600000000000000	defm	"[13;3HEnd    X   ->"
                00000000a7010000
                010000          
  1423   000304 00              	defb	0
  1423                          
  1423                          	defm	""
  1423   000305 1b              	defb	27
  1423                          
  1423   000306 4d18005e4dff0000	defm	"[14;3HEnd    Y   ->"
                16ff000000b40100
                000100          
  1423   000319 00              	defb	0
  1423                          
  1423   00031a 0000000000000000	defm	"Draw Rectangle on VGA"
                000000001a000000
                0002000000      
  1423   00032f 00              	defb	0
  1423                          
  1423   000330 0000c10100000100	defm	"Fill Ellipse on VGA"
                000000001b000000
                000000          
  1423   000343 00              	defb	0
  1423                          
  1423   000344 3f2c1614002c1600	defm	"Fill Rectangle on VGA"
                0000001600000000
                0600000000      
  1423   000359 00              	defb	0
  1423                          
  1423   00035a 0000001c00000000	defm	"Get Pixel from VGA"
                0000000000180000
                0001            
  1423   00036c 00              	defb	0
  1423                          
  1423   00036d 0000002400000000	defm	"Enter X=0,Y=0 to exit"
                0000009e00000000
                0000650200      
  1423   000382 00              	defb	0
  1423                          
  1423                          	defm	""
  1423   000383 1b              	defb	27
  1423                          
  1423   000384 0000001701000000	defm	"[11;3HX          ->           "
                0000001c01000001
                0000000000310100
                000100000000    
  1423                          	defm	""
  1423   0003a2 00              	defb	0
  1423                          
  1423                          	defm	""
  1423   0003a3 1b              	defb	27
  1423                          
  1423   0003a4 0200000100000000	defm	"[12;3HY          ->           "
                008e020000010000
                0000009a01000001
                000000000700    
  1423                          	defm	""
  1423   0003c2 00              	defb	0
  1423                          
  1423                          	defm	""
  1423   0003c3 1b              	defb	27
  1423                          
  1423   0003c4 3ffc0000ffff00  	defm	"[15;18H"
  1423   0003cb 1b              	defb	27
  1423                          
  1423   0003cc 10a7fffb01fffb03	defm	"[1m B=%u G=%u R=%u           "
                fffc22000020523d
                00002020000020b4
                0120200120      
  1423   0003e9 1b              	defb	27
  1423                          
  1423   0003ea 00306d          	defm	"[0m"
  1423   0003ed 00              	defb	0
  1423                          
  1423   0003ee 006e766500002052	defm	"Invert Rectangle on VGA"
                000074c101676c01
                20000020560600  
  1423   000405 00              	defb	0
  1423                          
  1423   000406 44720000204c0000	defm	"Draw Line from graphics cursor"
                651500726f000067
                7200006869630800
                637500006f72    
  1423   000424 206f6e205647f4  	defm	" on VGA"
  1423   00042b 00              	defb	0
  1423                          
  1423   00042c 4d6f761800677201	defm	"Move graphics cursor to"
                7000006324006375
                00006f729e006f  
  1423   000443 00              	defb	0
  1423                          
  1423   000444 000072a3026c2000	defm	"Scroll Screen (Neg=Left/Up, Po"
                0072651701202800
                00673dfb01667401
                550000205010    
  1423   000462 023d52016700002f	defm	"s=Right/Down)"
                449a016e29      
  1423   00046f 00              	defb	0
  1423                          
  1423                          	defm	""
  1423   000470 1b              	defb	27
  1423                          
  1423   000471 0000313b00005820	defm	"[11;3HX Offset   ->"
                4f00007365000020
                a7013e          
  1423   000484 00              	defb	0
  1423                          
  1423                          	defm	""
  1423   000485 1b              	defb	27
  1423                          
  1423   000486 5b00003b33020020	defm	"[12;3HY Offset   ->"
                4f66000065740000
                200400          
  1423   000499 00              	defb	0
  1423                          
  1423   00049a 5310742000720600	defm	"Set Brush Color"
                6820076f6c0072  
  1423   0004a9 00              	defb	0
  1423                          
  1423                          	defm	""
  1423   0004aa 1b              	defb	27
  1423                          
  1423   0004ab 5b31313b33480a00	defm	"[11;3HColor      ->"
                6c6f0e2020002016
                002d3e          
  1423   0004be 00              	defb	0
  1423                          
  1423   0004bf 0065740000696e65	defm	"Set Line End Type (0=Square, 1"
                0c006e6400007970
                65c003303d0e0075
                6100002c2031    
  1423   0004dd 0c006f756e646564	defm	"=Rounded)"
                29              
  1423   0004e6 00              	defb	0
  1423                          
  1423                          	defm	""
  1423   0004e7 1b              	defb	27
  1423                          
  1423   0004e8 0031310133000079	defm	"[11;3HType      ->"
                2400202000002020
                9e00            
  1423   0004fa 00              	defb	0
  1423                          
  1423   0004fb 53000020b5026e20	defm	"Set Pen Color"
                00006c6f17      
  1423   000508 00              	defb	0
  1423                          
  1423   000509 536500005065c602	defm	"Set Pen Width"
                5769017400      
  1423   000516 00              	defb	0
  1423                          
  1423                          	defm	""
  1423   000517 1b              	defb	27
  1423                          
  1423   000518 5bdb023b33015700	defm	"[11;3HWidth      ->"
                007468f002202001
                200000          
  1423   00052b 00              	defb	0
  1423                          
  1423   00052c 5305032050017800	defm	"Set Pixel on VGA"
                00206f9a01564701
  1423   00053c 00              	defb	0
  1423                          
  1423   00053d 0000742000007970	defm	"Set Glyph Drawing Options"
                680000726100006e
                a7014f7001690000
                73              
  1423   000556 00              	defb	0
  1423                          
  1423                          	defm	""
  1423   000557 1b              	defb	27
  1423                          
  1423   000558 0031313b0000426c	defm	"[11;3HBlank (1/0)            -"
                00006bb401312f01
                2900002020040020
                20200000202d    
  1423   000576 00              	defm	">"
  1423   000577 00              	defb	0
  1423                          
  1423                          	defm	""
  1423   000578 1b              	defb	27
  1423                          
  1423   000579 c101323b01480000	defm	"[12;3HBold (1/0)             -"
                6c640600312f3000
                0020200000201700
                20200000202d    
  1423   000597 00              	defm	">"
  1423   000598 00              	defb	0
  1423                          
  1423                          	defm	""
  1423   000599 1b              	defb	27
  1423                          
  1423   00059a 5b31080033480000	defm	"[13;3HDouble Width (1/0)     -"
                75626c6520576964
                7468202818003029
                012000002024    
  1423   0005b8 00              	defm	">"
  1423   0005b9 00              	defb	0
  1423                          
  1423                          	defm	""
  1423   0005ba 1b              	defb	27
  1423                          
  1423   0005bb 0000343b9e004669	defm	"[14;3HFill Background (1/0)  -"
                0000201a03636b00
                006f751701202800
                0030291c012d    
  1423   0005d9 3e              	defm	">"
  1423   0005da 00              	defb	0
  1423                          
  1423                          	defm	""
  1423   0005db 1b              	defb	27
  1423                          
  1423   0005dc 0000353b3101496e	defm	"[15;3HInvert (1/0)           -"
                0165000020284601
                3029012000002020
                5b012020012d    
  1423   0005fa 00              	defm	">"
  1423   0005fb 00              	defb	0
  1423                          
  1423                          	defm	""
  1423   0005fc 1b              	defb	27
  1423                          
  1423   0005fd 5b9a013b33014900	defm	"[16;3HItalic (1/0)           -"
                006c69000028312f
                00002020000020a7
                012020012000    
  1423   00061b 00              	defm	">"
  1423   00061c 00              	defb	0
  1423                          
  1423                          	defm	""
  1423   00061d 1b              	defb	27
  1423                          
  1423   00061e 0200373b3300006e	defm	"[17;3HUnderline (1/0)        -"
                6400006cb4016520
                0131000029200400
                20202000002d    
  1423   00063c 3e              	defm	">"
  1423   00063d 00              	defb	0
  1423                          
  1423                          	defm	""
  1423   00063e 1b              	defb	27
  1423                          
  1423   00063f 5bc1013b330148  	defm	"[11;30H"
  1423   000646 1b              	defb	27
  1423                          
  1423   000647 00316d          	defm	"[1m"
  1423   00064a 00              	defb	0
  1423                          
  1423                          	defm	""
  1423   00064b 1b              	defb	27
  1423                          
  1423   00064c 5b313200003048  	defm	"[12;30H"
  1423   000653 1b              	defb	27
  1423                          
  1423   000654 003118          	defm	"[1m"
  1423   000657 00              	defb	0
  1423                          
  1423                          	defm	""
  1423   000658 1b              	defb	27
  1423                          
  1423   000659 5b00003b330000  	defm	"[13;30H"
  1423   000660 1b              	defb	27
  1423                          
  1423   000661 5b3108          	defm	"[1m"
  1423   000664 00              	defb	0
  1423                          
  1423                          	defm	""
  1423   000665 1b              	defb	27
  1423                          
  1423   000666 5b00003b333048  	defm	"[14;30H"
  1423   00066d 1b              	defb	27
  1423                          
  1423   00066e 5b316d          	defm	"[1m"
  1423   000671 00              	defb	0
  1423                          
  1423                          	defm	""
  1423   000672 1b              	defb	27
  1423                          
  1423   000673 5b311800333001  	defm	"[15;30H"
  1423   00067a 1b              	defb	27
  1423                          
  1423   00067b 00006d          	defm	"[1m"
  1423   00067e 00              	defb	0
  1423                          
  1423                          	defm	""
  1423   00067f 1b              	defb	27
  1423                          
  1423   000680 5b31000033309e  	defm	"[16;30H"
  1423   000687 1b              	defb	27
  1423                          
  1423   000688 5b3100          	defm	"[1m"
  1423   00068b 00              	defb	0
  1423                          
  1423                          	defm	""
  1423   00068c 1b              	defb	27
  1423                          
  1423   00068d 3003373b000048  	defm	"[17;30H"
  1423   000694 1b              	defb	27
  1423                          
  1423   000695 17016d          	defm	"[1m"
  1423   000698 00              	defb	0
  1423                          
  1423   000699 000074201c016c65	defm	"Set Palette Item"
                0174000049743101
  1423   0006a9 00              	defb	0
  1423                          
  1423                          	defm	""
  1423   0006aa 1b              	defb	27
  1423                          
  1423   0006ab 0131000033487902	defm	"[11;3HPalette Index          -"
                6c6501740000496e
                8e02782001200000
                20209a01202d    
  1423   0006c9 01              	defm	">"
  1423   0006ca 00              	defb	0
  1423                          
  1423                          	defm	""
  1423   0006cb 1b              	defb	27
  1423                          
  1423   0006cc 003132000048426c	defm	"[12;3HBlue Value             -"
                00002056000075a7
                0120200120000020
                20020020202d    
  1423   0006ea 00              	defm	">"
  1423   0006eb 00              	defb	0
  1423                          
  1423                          	defm	""
  1423   0006ec 1b              	defb	27
  1423                          
  1423   0006ed 5b00003bb4014772	defm	"[13;3HGreen Value            -"
                0165000056610400
                6520200000202000
                0020c101202d    
  1423   00070b 01              	defm	">"
  1423   00070c 00              	defb	0
  1423                          
  1423                          	defm	""
  1423   00070d 1b              	defb	27
  1423                          
  1423   00070e 0031340600485265	defm	"[14;3HRed Value              -"
                0000566100006519
                0020200000202000
                002020200800    
  1423   00072c 3e              	defm	">"
  1423   00072d 00              	defb	0
  1423                          
  1423   00072e 000074204d6f7573	defm	"Set Mouse Cursor Type"
                6520437572731800
                2054017000      
  1423   000743 00              	defb	0
  1423                          
  1423                          	defm	""
  1423   000744 1b              	defb	27
  1423                          
  1423   000745 2400313b00004d6f	defm	"[11;3HMouse Cursor Type      -"
                9e00652000007244
                0372200000706517
                01202000002d    
  1423   000763 3e              	defm	">"
  1423   000764 00              	defb	0
  1423                          
  1423   000765 016574014d000073	defm	"Set Mouse Cursor Position on V"
                6531017572016f00
                00506f4601746901
                6e00006e205b    
  1423   000783 0141            	defm	"GA"
  1423   000785 00              	defb	0
  1423                          
  1423   000786 0165000053709a01	defm	"Set Sprite Visibility on VGA"
                7465015600006962
                000069747900006e
                20000041        
  1423   0007a2 00              	defb	0
  1423                          
  1423                          	defm	""
  1423   0007a3 1b              	defb	27
  1423                          
  1423   0007a4 5b31013b0000496e	defm	"[11;3HIndex        ->"
                0200782020000020
                2000002db4      
  1423   0007b9 00              	defb	0
  1423                          
  1423                          	defm	""
  1423   0007ba 1b              	defb	27
  1423                          
  1423   0007bb 5b01320000485604	defm	"[12;3HVisible(0/1) ->"
                0069626c0000302f
                000020c101      
  1423   0007d0 00              	defb	0
  1423                          
  1423                          	defm	""
  1423   0007d1 1b              	defb	27
  1423                          
  1423   0007d2 01310000323506  	defm	"[11;25H"
  1423   0007d9 1b              	defb	27
  1423                          
  1423   0007da 5b316d          	defm	"[1m"
  1423   0007dd 00              	defb	0
  1423                          
  1423                          	defm	""
  1423   0007de 1b              	defb	27
  1423                          
  1423   0007df 5b310000321a00  	defm	"[12;25H"
  1423   0007e6 1b              	defb	27
  1423                          
  1423   0007e7 5b0000          	defm	"[1m"
  1423   0007ea 00              	defb	0
  1423                          
  1423   0007eb 5300002057690800	defm	"Set WiFi SSID"
                2053000044      
  1423   0007f8 00              	defb	0
  1423                          
  1423                          	defm	""
  1423   0007f9 1b              	defb	27
  1423                          
  1423   0007fa 5b31313b33485700	defm	"[11;3HWiFi SSID  ->"
                0069200000494420
                01003e          
  1423   00080d 00              	defb	0
  1423                          
  1423   00080e 1800742001690000	defm	"Set WiFi Password"
                2024007373000072
                64              
  1423   00081f 00              	defb	0
  1423                          
  1423                          	defm	""
  1423   000820 1b              	defb	27
  1423                          
  1423   000821 5b310000335a0369	defm	"[11;3HWiFi Password  ->"
                4600005061170177
                6f0000206d033e  
  1423   000838 00              	defb	0
  1423                          
  1423                          	defm	""
  1423   000839 1b              	defb	27
  1423                          
  1423   00083a 0031313b323448  	defm	"[11;24H"
  1423   000841 1b              	defb	27
  1423                          
  1423   000842 083183          	defm	"[1m"
  1423   000845 00              	defb	0
  1423                          
  1423   000846 5769016900007461	defm	"Wifi Status="
                a303733d        
  1423   000852 00              	defb	0
  1423                          
  1423                          	defm	""
  1423   000853 1b              	defb	27
  1423                          
  1423   000854 0000333b9a0148  	defm	"[23;30H"
  1423   00085b 1b              	defb	27
  1423                          
  1423   00085c 013100002564    	defm	"[1m %d"
  1423   000862 00              	defb	0
  1423                          
  1423   000863 0069666900006967	defm	"Wifi Signal Strength="
                00006ca701747201
                6e0000683d      
  1423   000878 00              	defb	0
  1423                          
  1423   000879 0050204100007265	defm	"IP Address="
                00003d          
  1423   000884 00              	defb	0
  1423                          
  1423                          	defm	""
  1423   000885 1b              	defb	27
  1423                          
  1423   000886 5b320000323048  	defm	"[23;20H"
  1423   00088d 1b              	defb	27
  1423                          
  1423   00088e 5b31a608250a0025	defm	"[1m %d.%d.%d.%d"
                640000642e2501  
  1423   00089d 00              	defb	0
  1423                          
  1423   00089e 53a6086e0000204d	defm	"Subnet Mask="
                611b003d        
  1423   0008aa 00              	defb	0
  1423                          
  1423   0008ab 0000204708006577	defm	"IP Gateway="
                610400          
  1423   0008b6 00              	defb	0
  1423                          
  1423   0008b7 5000006d61720600	defm	"Primary DNS Address="
                444e530000646400
                00730400        
  1423   0008cb 00              	defb	0
  1423                          
  1423                          	defm	""
  1423   0008cc 1b              	defb	27
  1423                          
  1423   0008cd 5b00003b320000  	defm	"[23;25H"
  1423   0008d4 1b              	defb	27
  1423                          
  1423   0008d5 00006d2025642ec3	defm	"[1m %d.%d.%d.%d"
                032e2508002500  
  1423   0008e4 00              	defb	0
  1423                          
  1423   0008e5 5308006f6e000072	defm	"Secondary DNS Address="
                7904440000204164
                64723c08730c    
  1423   0008fb 00              	defb	0
  1423                          
  1423   0008fc 5365742057694669	defm	"Set WiFi IP Address"
                1800502001640000
                652400          
  1423   00090f 00              	defb	0
  1423                          
  1423                          	defm	""
  1423   000910 1b              	defb	27
  1423                          
  1423   000911 0000313b9e004950	defm	"[11;3HIP Octet 1     ->"
                000063ee03742000
                00202017012d3e  
  1423   000928 00              	defb	0
  1423                          
  1423                          	defm	""
  1423   000929 1b              	defb	27
  1423                          
  1423   00092a 5b311c0133480150	defm	"[12;3HIP Octet 2     ->"
                0000637431012032
                01200000202d46  
  1423   000941 00              	defb	0
  1423                          
  1423                          	defm	""
  1423   000942 1b              	defb	27
  1423                          
  1423   000943 5b0133000048495b	defm	"[13;3HIP Octet 3     ->"
                014f630165000033
                209a012020013e  
  1423   00095a 00              	defb	0
  1423                          
  1423                          	defm	""
  1423   00095b 1b              	defb	27
  1423                          
  1423   00095c 5b31000033484900	defm	"[14;3HIP Octet 4     ->"
                004f63000074a701
                2020012000003e  
  1423   000973 00              	defb	0
  1423                          
  1423                          	defm	""
  1423   000974 1b              	defb	27
  1423                          
  1423   000975 0031333b000048  	defm	"[13;25H"
  1423   00097c 1b              	defb	27
  1423                          
  1423   00097d 00006d          	defm	"[1m"
  1423   000980 00              	defb	0
  1423                          
  1423                          	defm	""
  1423   000981 1b              	defb	27
  1423                          
  1423   000982 5b31013b000048  	defm	"[14;25H"
  1423   000989 1b              	defb	27
  1423                          
  1423   00098a 04006d          	defm	"[1m"
  1423   00098d 00              	defb	0
  1423                          
  1423   00098e 5300002057000069	defm	"Set WiFi Subnet Address"
                c101756201650000
                41640600657373  
  1423   0009a5 00              	defb	0
  1423                          
  1423                          	defm	""
  1423   0009a6 1b              	defb	27
  1423                          
  1423   0009a7 5b310000331c0075	defm	"[11;3HSubnet Octet 1 ->"
                6200007420000074
                65740800202d00  
  1423   0009be 00              	defb	0
  1423                          
  1423                          	defm	""
  1423   0009bf 1b              	defb	27
  1423                          
  1423   0009c0 5b31323b33485375	defm	"[12;3HSubnet Octet 2 ->"
                6218007420016300
                00742400202d00  
  1423   0009d7 00              	defb	0
  1423                          
  1423                          	defm	""
  1423   0009d8 1b              	defb	27
  1423                          
  1423   0009d9 5b9e003b33000075	defm	"[13;3HSubnet Octet 3 ->"
                0604657400006374
                1701203300003e  
  1423   0009f0 00              	defb	0
  1423                          
  1423                          	defm	""
  1423   0009f1 1b              	defb	27
  1423                          
  1423   0009f2 0131340133000075	defm	"[14;3HSubnet Octet 4 ->"
                6210027420016300
                0074209a012d3e  
  1423   000a09 00              	defb	0
  1423                          
  1423   000a0a 5300002057000069	defm	"Set WiFi Gateway Address"
                2047000065770000
                20a7016472017300
  1423   000a22 00              	defb	0
  1423                          
  1423                          	defm	""
  1423   000a23 1b              	defb	27
  1423                          
  1423   000a24 5b02003b33480000	defm	"[11;3HGateway Octet 1 ->"
                74650000791d0063
                740000203100003e
  1423   000a3c 00              	defb	0
  1423                          
  1423                          	defm	""
  1423   000a3d 1b              	defb	27
  1423                          
  1423   000a3e 0400323b00004761	defm	"[12;3HGateway Octet 2 ->"
                7465776179201800
                7465012000002d24
  1423   000a56 00              	defb	0
  1423                          
  1423                          	defm	""
  1423   000a57 1b              	defb	27
  1423                          
  1423   000a58 5b00003b339e0061	defm	"[13;3HGateway Octet 3 ->"
                740000612c044f63
                0000742017012d3e
  1423   000a70 00              	defb	0
  1423                          
  1423                          	defm	""
  1423   000a71 1b              	defb	27
  1423                          
  1423   000a72 5b31fb0133480161	defm	"[14;3HGateway Octet 4 ->"
                0000776110024f63
                0165000034209a01
  1423   000a8a 00              	defb	0
  1423                          
  1423   000a8b 5301740000694600	defm	"Set WiFi Primary DNS Address"
                0050726900007279
                00004ea701416401
                72000073        
  1423   000aa7 00              	defb	0
  1423                          
  1423                          	defm	""
  1423   000aa8 1b              	defb	27
  1423                          
  1423   000aa9 0031313b0000444e	defm	"[11;3HDNS Octet 1     ->"
                00004f1e00657400
                0020200000202d3e
  1423   000ac1 00              	defb	0
  1423                          
  1423                          	defm	""
  1423   000ac2 1b              	defb	27
  1423                          
  1423   000ac3 5b3100003348444e	defm	"[12;3HDNS Octet 2     ->"
                53204f6318007420
                012000002024003e
  1423   000adb 00              	defb	0
  1423                          
  1423                          	defm	""
  1423   000adc 1b              	defb	27
  1423                          
  1423   000add 0031339e00484400	defm	"[13;3HDNS Octet 3     ->"
                0020440474650000
                3320170120200000
  1423   000af5 00              	defb	0
  1423                          
  1423                          	defm	""
  1423   000af6 1b              	defb	27
  1423                          
  1423   000af7 7004343b01480000	defm	"[14;3HDNS Octet 4     ->"
                5320850474650120
                000020209a012d3e
  1423   000b0f 00              	defb	0
  1423                          
  1423   000b10 5300002057000069	defm	"Set WiFi Hostname"
                20480000746e0000
                65              
  1423   000b21 00              	defb	0
  1423                          
  1423                          	defm	""
  1423   000b22 1b              	defb	27
  1423                          
  1423   000b23 5b31013b00005769	defm	"[11;3HWiFi Hostname  ->"
                020020486f00006e
                610000201f003e  
  1423   000b3a 00              	defb	0
  1423                          
  1423   000b3b 000074200000636f	defm	"Set incoming TCP Port"
                6d04006720000050
                20506f7274      
  1423   000b50 00              	defb	0
  1423                          
  1423                          	defm	""
  1423   000b51 1b              	defb	27
  1423                          
  1423   000b52 0031310133000043	defm	"[11;3HTCP Port      ->"
                2400506f00002020
                9e0020200000    
  1423   000b68 00              	defb	0
  1423                          
  1423                          	defm	""
  1423   000b69 1b              	defb	27
  1423                          
  1423   000b6a 04313100003048  	defm	"[11;20H"
  1423   000b71 1b              	defb	27
  1423                          
  1423   000b72 01316d          	defm	"[1m"
  1423   000b75 00              	defb	0
  1423                          
  1423   000b76 007574aa04742001	defm	"Output single char to TCP Conn"
                6900006c659a0168
                6101200000205400
                0020436f0000    
  1423   000b94 656374692000    	defm	"ection"
  1423   000b9a 00              	defb	0
  1423                          
  1423   000b9b 5400006520000061	defm	"Type characters to be echoed t"
                7200007465000020
                746f206218006563
                016f00002024    
  1423   000bb9 002054000020439e	defm	"o TCP Connection.  Press 'ESC'"
                006e65000069bf04
                2e20000072651701
                202700004327    
  1423   000bd7 e7046f2001650000	defm	" to return to menu"
                726e9a016f200165
                0000            
  1423   000be9 00              	defb	0
  1423                          
  1423                          	defm	""
  1423   000bea 1b              	defb	27
  1423                          
  1423   000beb 0000313b33000043	defm	"[11;3HTCP Connection      ->"
                50204321006e6500
                00696f0000202000
                00202d00        
  1423   000c07 00              	defb	0
  1423                          
  1423                          	defm	""
  1423   000c08 1b              	defb	27
  1423                          
  1423   000c09 5b31313b180048  	defm	"[11;27H"
  1423   000c10 1b              	defb	27
  1423                          
  1423   000c11 013100          	defm	"[1m"
  1423   000c14 00              	defb	0
  1423                          
  1423                          	defm	""
  1423   000c15 1b              	defb	27
  1423                          
  1423   000c16 2400303b0000484b	defm	"[20;10HKey->"
                9e002d3e        
  1423   000c22 1b              	defb	27
  1423                          
  1423   000c23 0031fb          	defm	"[1m"
  1423   000c26 00              	defb	0
  1423                          
  1423                          	defm	""
  1423   000c27 0a              	defb	10
  1423                          
  1423                          	defm	""
  1423   000c28 0d              	defb	13
  1423                          
  1423                          	defm	""
  1423   000c29 1b              	defb	27
  1423                          
  1423   000c2a 0034301701316d00	defm	"[40;31mH"
  1423   000c32 1b              	defb	27
  1423                          
  1423   000c33 5b34aa0433320149	defm	"[40;32mI "
                00              
  1423   000c3c 1b              	defb	27
  1423                          
  1423   000c3d 5b349a0133330146	defm	"[40;33mF"
  1423   000c45 1b              	defb	27
  1423                          
  1423   000c46 0034300000346d52	defm	"[40;34mR"
  1423   000c4e 1b              	defb	27
  1423                          
  1423   000c4f 0034303b3322004f	defm	"[40;35mOM "
                4d00            
  1423   000c59 1b              	defb	27
  1423                          
  1423   000c5a 5b34000033360000	defm	"[40;36mD"
  1423   000c62 1b              	defb	27
  1423                          
  1423   000c63 5b00003b33376d55	defm	"[40;37mU"
  1423   000c6b 1b              	defb	27
  1423                          
  1423   000c6c 003430013900004f	defm	"[40;92mO"
  1423   000c74 1b              	defb	27
  1423                          
  1423   000c75 0034300000336d9e	defm	"[40;93mD"
  1423   000c7d 1b              	defb	27
  1423                          
  1423   000c7e 5b34000039090559	defm	"[40;94mY"
  1423   000c86 1b              	defb	27
  1423                          
  1423   000c87 0000303b17016d4e	defm	"[40;95mN"
  1423   000c8f 1b              	defb	27
  1423                          
  1423   000c90 0034301705366d01	defm	"[40;96mE"
  1423   000c98 1b              	defb	27
  1423                          
  1423   000c99 0000303b9a016d2e	defm	"[40;97m."
  1423   000ca1 0a              	defb	10
  1423                          
  1423                          	defm	""
  1423   000ca2 0d              	defb	13
  1423                          
  1423                          	defm	""
  1423   000ca3 00              	defb	0
  1423                          
  1423                          	defm	""
  1423   000ca4 00              	defb	0
  1423                          
  1423   000ca5 4f75000075742000	defm	"Output String to TCP Connectio"
                0072696e6723006f
                200000502000006e
                6e0000746900    
  1423   000cc3 00              	defm	"n"
  1423   000cc4 00              	defb	0
  1423                          
  1423   000cc5 4765742043000072	defm	"Get Characters from TCP Connec"
                6100006572730100
                726f180054430120
                00006e240063    
  1423   000ce3 7400006e        	defm	"tion"
  1423   000ce7 00              	defb	0
  1423                          
  1423   000ce8 9e0065730000612c	defm	"Press any key on terminal keyb"
                05206b0000206f17
                0174650000696d03
                6c2000007962    
  1423   000d06 6f617264880d6f83	defm	"oard to return to menu"
                0365740172000074
                6fa303656e01    
  1423   000d1c 00              	defb	0
  1423                          
  1423                          	defm	""
  1423   000d1d 1b              	defb	27
  1423                          
  1423   000d1e 0031359a01304801	defm	"[15;10HCharacter->"
                6800006163080072
                2d3e            
  1423   000d30 1b              	defb	27
  1423                          
  1423   000d31 00316d000020a701	defm	"[1m                     "
                2020012000002020
                0a00202020000020
  1423   000d49 00              	defb	0
  1423                          
  1423                          	defm	""
  1423   000d4a 1b              	defb	27
  1423                          
  1423   000d4b 0031080032330000	defm	"[15;23H %d (%c)"
                2564200125636f  
  1423   000d5a 00              	defb	0
  1423                          
  1423                          	defm	""
  1423   000d5b 1b              	defb	27
  1423                          
  1423   000d5c 0a00353b00004820	defm	"[15;23H %d"
                2501            
  1423   000d66 00              	defb	0
  1423                          
  1423   000d67 476f0d2000005020	defm	"Get TCP Connection Queue Lengt"
                4324006e65000069
                6f08005175650400
                204c00006774    
  1423   000d85 68              	defm	"h"
  1423   000d86 00              	defb	0
  1423                          
  1423                          	defm	""
  1423   000d87 1b              	defb	27
  1423                          
  1423   000d88 5b0c003b33485175	defm	"[18;3HQueue Length= "
                6575651800656e01
                74000020        
  1423   000d9c 1b              	defb	27
  1423                          
  1423   000d9d 00316d00006420  	defm	"[1m %d "
  1423   000da4 1b              	defb	27
  1423                          
  1423   000da5 00306d          	defm	"[0m"
  1423   000da8 00              	defb	0
  1423                          
  1423                          	defm	""
  1423   000da9 0a              	defb	10
  1423                          
  1423                          	defm	""
  1423   000daa 0d              	defb	13
  1423                          
  1423                          	defm	""
  1423   000dab 0a              	defb	10
  1423                          
  1423                          	defm	""
  1423   000dac 0d              	defb	13
  1423                          
  1423   000dad 2050000073731701	defm	" Press Any Key . . ."
                6e79000065795705
                202e012e        
  1423   000dc1 00              	defb	0
  1423                          
  1423   000dc2 0072657805652001	defm	"Create TCP Connection"
                430000436f990565
                6301690000      
  1423   000dd7 00              	defb	0
  1423                          
  1423                          	defm	""
  1423   000dd8 1b              	defb	27
  1423                          
  1423   000dd9 ba05323b01480000	defm	"[12;3HTCP Port            ->"
                5020db0572740120
                00002020fc052020
                01200000        
  1423   000df5 00              	defb	0
  1423                          
  1423                          	defm	""
  1423   000df6 1b              	defb	27
  1423                          
  1423   000df7 1d06333b01480000	defm	"[13;3HHost Name           ->"
                73743e06616d0120
                0000202000002020
                2000003e        
  1423   000e13 00              	defb	0
  1423                          
  1423                          	defm	""
  1423   000e14 1b              	defb	27
  1423                          
  1423   000e15 5b4b063b320148  	defm	"[12;27H"
  1423   000e1c 1b              	defb	27
  1423                          
  1423   000e1d 00316d          	defm	"[1m"
  1423   000e20 00              	defb	0
  1423                          
  1423                          	defm	""
  1423   000e21 1b              	defb	27
  1423                          
  1423   000e22 5b313300003748  	defm	"[13;27H"
  1423   000e29 1b              	defb	27
  1423                          
  1423   000e2a 5b5806          	defm	"[1m"
  1423   000e2d 00              	defb	0
  1423                          
  1423   000e2e 4f01740000742002	defm	"Output single char to VGA"
                006e676c00006368
                617265066f200147
                00              
  1423   000e47 00              	defb	0
  1423                          
  1423   000e48 5365030052657300	defm	"Set Resolution"
                007574696f72    
  1423   000e56 00              	defb	0
  1423                          
  1423   000e57 4f75017000002031	defm	"Output 100 single chars to VGA"
                040020736900006c
                6520637f06727301
                740000564705    
  1423                          	defm	""
  1423   000e75 00              	defb	0
  1423                          
  1423   000e76 4c6f610000466f6e	defm	"Load Font"
                74              
  1423   000e7f 00              	defb	0
  1423                          
  1423   000e80 0675740175000073	defm	"Output string to VGA"
                7406006e67200000
                20564741        
  1423   000e94 00              	defb	0
  1423                          
  1423   000e95 006f700000526500	defm	"Copy Rectangle"
                00616e670700    
  1423   000ea3 00              	defb	0
  1423                          
  1423   000ea4 470000204b657973	defm	"Get Keystroke"
                74726f6b65      
  1423   000eb1 00              	defb	0
  1423                          
  1423   000eb2 0072610120000074	defm	"Draw Bitmap"
                240070          
  1423   000ebd 00              	defb	0
  1423                          
  1423   000ebe 000074209e007920	defm	"Get Key Buffer Length"
                0000669906722000
                006e671701      
  1423   000ed3 00              	defb	0
  1423                          
  1423   000ed4 4400007720aa0661	defm	"Draw Char"
                72              
  1423   000edd 00              	defb	0
  1423                          
  1423   000ede 5300002043cb0673	defm	"Set Cursor visibility"
                6f012000007369ec
                066c690179      
  1423   000ef3 00              	defb	0
  1423                          
  1423   000ef4 0072610d07456c01	defm	"Draw Ellipse"
                69000065        
  1423   000f00 00              	defb	0
  1423                          
  1423   000f01 3e06617701470000	defm	"Draw Glyph"
                7068            
  1423   000f0b 00              	defb	0
  1423                          
  1423   000f0c 0065742000007269	defm	"Set serial baud rate"
                616c4b0661750120
                00007465        
  1423   000f20 00              	defb	0
  1423                          
  1423   000f21 007261770000696e	defm	"Draw Line"
                65              
  1423   000f2a 00              	defb	0
  1423                          
  1423   000f2b 5806742001650000	defm	"Set serial mode"
                616c02006f6465  
  1423   000f3a 00              	defb	0
  1423                          
  1423   000f3b 0072617720650663	defm	"Draw Rectangle"
                74016e000065    
  1423   000f49 00              	defb	0
  1423                          
  1423   000f4a 0300726961000054	defm	"Serial TX single char"
                5820732600676c00
                0063680000      
  1423   000f5f 00              	defb	0
  1423                          
  1423   000f60 4669040020450000	defm	"Fill Ellipse"
                69707365        
  1423   000f6c 00              	defb	0
  1423                          
  1423   000f6d 53651800616c0154	defm	"Serial TX string"
                0000732400696e00
  1423   000f7d 00              	defb	0
  1423                          
  1423   000f7e 46699e0020520000	defm	"Fill Rectangle"
                742e07676c00    
  1423   000f8c 00              	defb	0
  1423                          
  1423   000f8d 53651701616c0000	defm	"Serial RX"
                58              
  1423   000f96 00              	defb	0
  1423                          
  1423   000f97 4407742001690000	defm	"Get Pixel"
                6c              
  1423   000fa0 00              	defb	0
  1423                          
  1423   000fa1 3e067269016c0000	defm	"Serial Buffer Length"
                7566000072204c00
                00677468        
  1423   000fb5 00              	defb	0
  1423                          
  1423   000fb6 2700766500002052	defm	"Invert Rectangle"
                0000746100006c65
  1423   000fc6 00              	defb	0
  1423                          
  1423   000fc7 00726177204c6900	defm	"Draw Line To"
                00205400        
  1423   000fd3 00              	defb	0
  1423                          
  1423   000fd4 506c610100537418	defm	"Play String"
                006e67          
  1423   000fdf 00              	defb	0
  1423                          
  1423   000fe0 4d00006524007572	defm	"Move Cursor To"
                000072209e00    
  1423   000fee 00              	defb	0
  1423                          
  1423   000fef 5000007965076f75	defm	"Play Sound"
                0000            
  1423   000ff9 00              	defb	0
  1423                          
  1423   000ffa 5317016f6c00    	defm	"Scroll"
  1423   001000 00              	defb	0
  1423                          
  1423   001001 536d032056000075	defm	"Set Volume"
                6d65            
  1423   00100b 00              	defb	0
  1423                          
  1423   00100c 436c8c1072830363	defm	"Clear Screen"
                72016500        
  1423   001018 00              	defb	0
  1423                          
  1423                          	defm	""
  1423   001019 1b              	defb	27
  1423                          
  1423   00101a 5ba3034d65017500	defm	"[1mMenu Page TWO"
                0061679a01545701
  1423   00102a 1b              	defb	27
  1423                          
  1423   00102b 00006d          	defm	"[0m"
  1423   00102e 00              	defb	0
  1423                          
  1423                          	defm	""
  1423   00102f 1b              	defb	27
  1423                          
  1423   001030 00316d4500007420	defm	"[1mExit Program"
                00006fa701616d  
  1423   00103f 1b              	defb	27
  1423                          
  1423   001040 5b0000          	defm	"[0m"
  1423   001043 00              	defb	0
  1423                          
  1423                          	defm	""
  1423   001044 1b              	defb	27
  1423                          
  1423   001045 0a00323b31000065	defm	"[22;1HSelection->"
                6c00007408006e2d
                00              
  1423   001056 1b              	defb	27
  1423                          
  1423   001057 5b316d          	defm	"[1m"
  1423   00105a 00              	defb	0
  1423                          
  1423   00105b 31307310630a0072	defm	"100 characters sent."
                6100006572730173
                6573102e        
  1423   00106f 00              	defb	0
  1423                          
  1423   001070 0074726928002073	defm	"string sent."
                0000742e        
  1423   00107c 00              	defb	0
  1423                          
  1423                          	defm	""
  1423   00107d 1b              	defb	27
  1423                          
  1423   00107e 5b324a          	defm	"[2J"
  1423   001081 1b              	defb	27
  1423                          
  1423   001082 00306d          	defm	"[0m"
  1423   001085 1b              	defb	27
  1423                          
  1423   001086 0048            	defm	"[H"
  1423   001088 1b              	defb	27
  1423                          
  1423   001089 5b0910          	defm	"[0m"
  1423   00108c 0a              	defb	10
  1423                          
  1423                          	defm	""
  1423   00108d 0d              	defb	13
  1423                          
  1423                          	defm	""
  1423   00108e 0a              	defb	10
  1423                          
  1423                          	defm	""
  1423   00108f 0d              	defb	13
  1423                          
  1423                          	defm	""
  1423   001090 00              	defb	0
  1423                          
  1423   001091 536529004c690000	defm	"Set Line End Type"
                20456e6420547900
                00              
  1423   0010a2 00              	defb	0
  1423                          
  1423   0010a3 5365726961010032	defm	"Serial 2 RX "
                20105820        
  1423   0010af 00              	defb	0
  1423                          
  1423   0010b0 53030069610f2032	defm	"Serial 2 Buffer Length"
                0042050066657220
                04656e060068    
  1423   0010c6 00              	defb	0
  1423                          
  1423   0010c7 c0657403572a0069	defm	"Set Wifi SSID"
                2000004944      
  1423   0010d4 00              	defb	0
  1423                          
  1423   0010d5 0065742008007865	defm	"Set Pixel"
                00              
  1423   0010de 00              	defb	0
  1423                          
  1423   0010df 53657400006c79c0	defm	"Set Glyph Options"
                03204f0000696f6e
                73              
  1423   0010f0 00              	defb	0
  1423                          
  1423   0010f1 436f6e6e65630100	defm	"Connect To WiFi"
                546f1800694601  
  1423   001100 00              	defb	0
  1423                          
  1423   001101 0000742400694600	defm	"Get WiFi Status"
                0053749e007573  
  1423   001110 00              	defb	0
  1423                          
  1423   001111 006565074d6f0000	defm	"Set Mouse Cursor"
                6520170172730000
  1423   001121 00              	defb	0
  1423                          
  1423   001122 6d03742000004669	defm	"Get WiFi Signal Strength"
                20536967b1116c83
                037472016e000068
  1423   00113a 00              	defb	0
  1423                          
  1423   00113b a3037420016f0000	defm	"Set Mouse Cursor Position"
                6520060072736f72
                20509a016974016f
                00              
  1423   001154 00              	defb	0
  1423                          
  1423   001155 4765020049502000	defm	"Get IP Address"
                006472000073    
  1423   001163 00              	defb	0
  1423                          
  1423   001164 016574015300006e	defm	"Get Subnet Mask"
                6504004d617300  
  1423   001173 00              	defb	0
  1423                          
  1423   001174 5265000076652053	defm	"Remove Sprites"
                707269016573    
  1423   001182 00              	defb	0
  1423                          
  1423   001183 1165040047610000	defm	"Get Gateway"
                776179          
  1423   00118e 00              	defb	0
  1423                          
  1423   00118f 5365981153000069	defm	"Set Sprite Map"
                74652b006170    
  1423   00119d 00              	defb	0
  1423                          
  1423   00119e 006574020072696d	defm	"Get Primary DNS"
                05007920000053  
  1423   0011ad 00              	defb	0
  1423                          
  1423   0011ae 5329112053707269	defm	"Set Sprite Location"
                746518006f630174
                00006e          
  1423   0011c1 00              	defb	0
  1423                          
  1423   0011c2 006574000065639e	defm	"Get Secondary DNS"
                0064610000208607
                53              
  1423   0011d3 00              	defb	0
  1423                          
  1423   0011d4 0000742017017269	defm	"Set Sprite Visibility"
                00002056a3076962
                016c000079      
  1423   0011e9 00              	defb	0
  1423                          
  1423   0011ea ba07742001500000	defm	"Set IP Address"
                6464d1077373    
  1423   0011f8 00              	defb	0
  1423                          
  1423   0011f9 530000205301006e	defm	"Set Subnet Mask"
                6574000061736b  
  1423   001208 00              	defb	0
  1423                          
  1423   001209 de07742001650000	defm	"Set Serial 2 baud rate"
                616c000020626100
                00207261742c    
  1423   00121f 00              	defb	0
  1423                          
  1423   001220 5365000047610100	defm	"Set Gateway"
                776100          
  1423   00122b 00              	defb	0
  1423                          
  1423   00122c 5365000053650000	defm	"Set Serial 2 mode"
                616c0000206d0000
                65              
  1423   00123d 00              	defb	0
  1423                          
  1423   00123e 5365c0ff5072696d	defm	"Set Primary DNS"
                18007920014e00  
  1423   00124d 00              	defb	0
  1423                          
  1423   00124e 5324006961000032	defm	"Serial 2 TX single char"
                209e002073000067
                eb072063000072  
  1423   001265 00              	defb	0
  1423                          
  1423   001266 170174200000636f	defm	"Set Secondary DNS"
                f907617201200000
                53              
  1423   001277 00              	defb	0
  1423                          
  1423   001278 9a017269016c0000	defm	"Serial 2 TX String"
                2054020053747200
                0067            
  1423   00128a 00              	defb	0
  1423                          
  1423                          	defm	""
  1423   00128b 1b              	defb	27
  1423                          
  1423   00128c 5b310000656e7520	defm	"[1mMenu Page THREE"
                5061a71220544852
                4500            
  1423   00129e 1b              	defb	27
  1423                          
  1423   00129f 5b3000          	defm	"[0m"
  1423   0012a2 00              	defb	0
  1423                          
  1423                          	defm	""
  1423   0012a3 1b              	defb	27
  1423                          
  1423   0012a4 5b91124d00007520	defm	"[1mMenu Page ONE"
                0000676542004e45
  1423   0012b4 1b              	defb	27
  1423                          
  1423   0012b5 5bc0ff          	defm	"[0m"
  1423   0012b8 00              	defb	0
  1423                          
  1423   0012b9 5370721800657301	defm	"Sprites Removed."
                5200006f2400642e
  1423   0012c9 00              	defb	0
  1423                          
  1423   0012ca 0070729e00652000	defm	"Sprite Map Defined."
                00700e0865660000
                656417          
  1423   0012dd 00              	defb	0
  1423                          
  1423   0012de 436f000065632008	defm	"Connecting to WiFi."
                6e67017400005769
                39082e          
  1423   0012f1 00              	defb	0
  1423                          
  1423   0012f2 01650000486f0200	defm	"Set Hostname"
                6e616d00        
  1423   0012fe 00              	defb	0
  1423                          
  1423   0012ff 530200204900006f	defm	"Set Incoming Port"
                6d696e67201d1372
                74              
  1423   001310 00              	defb	0
  1423                          
  1423   001311 4f75000042790000	defm	"Out Byte To Connection"
                205407134300006e
                650000696f42    
  1423   001327 00              	defb	0
  1423                          
  1423   001328 4f75742003007269	defm	"Out String To Connection"
                000020546f200400
                6e6e000074690000
  1423   001340 00              	defb	0
  1423                          
  1423   001341 496e000079746520	defm	"In Byte From Connection"
                46086f6d00006f6e
                5308637402006e  
  1423   001358 00              	defb	0
  1423                          
  1423   001359 0000657502200000	defm	"Queue Length for Connection"
                6e67741701666f01
                2000006e6e656374
                05006e          
  1423   001374 00              	defb	0
  1423                          
  1423   001375 000061630000436f	defm	"Place Connection 0 in byte mod"
                6e6308637400006e
                205308696e206279
                740220000064    
  1423   001393 652017016f720174	defm	"e (for telent clients)"
                0000656e7420636c
                69650c007329    
  1423   0013a9 00              	defb	0
  1423                          
  1423   0013aa 007265060065204f	defm	"Create Outgoing TCP Connection"
                0000676f00006704
                0043502000006e6e
                00007400006e    
  1423                          	defm	""
  1423   0013c8 00              	defb	0
  1423                          
  1423   0013c9 42797400004d6f64	defm	"Byte Mode Selected."
                7908536500006374
                85082e          
  1423   0013dc 00              	defb	0
  1423                          
  1423                          	defm	""
  1423   0013dd 0a              	defb	10
  1423                          
  1423   0013de 004100004908003a	defm	"WARNING: unsupported CP/M vers"
                00006e0800707000
                007465052000002f
                4d2076657217    
  1423   0013fc 016f6e0164000065	defm	"ion detected: %x.%x"
                637465643a202578
                2e250d          
  1423   00140f 0a              	defb	10
  1423                          
  1423                          	defm	""
  1423   001410 0a              	defb	10
  1423                          
  1423                          	defm	""
  1423   001411 00              	defb	0
  1423                          
  1423                          
  1423                          ; --- Start of Static Variables ---
  1423                          
  1423                          	SECTION	bss_compiler
  1423   000000 0011            ._cpm_ver	defs	2
  1423                          	SECTION	code_compiler
  1423                          
  1423                          
  1423                          ; --- Start of Scope Defns ---
  1423                          
  1423                          	GLOBAL	__CLIB_OPEN_MAX
  1423                          	GLOBAL	__fcb
  1423                          	GLOBAL	bdos
  1423                          	GLOBAL	bios
  1423                          	GLOBAL	getfcb
  1423                          	GLOBAL	cpm_cache_get
  1423                          	GLOBAL	cpm_cache_flush
  1423                          	GLOBAL	setfcb
  1423                          	GLOBAL	parsefcb
  1423                          	GLOBAL	putoffset
  1423                          	GLOBAL	swapuid
  1423                          	GLOBAL	_putoffset
  1423                          	GLOBAL	_fc_dir
  1423                          	GLOBAL	_fc_dirpos
  1423                          	GLOBAL	_fc_dirbuf
  1423                          	GLOBAL	change_volume
  1423                          	GLOBAL	get_current_volume
  1423                          	GLOBAL	dir_move_first
  1423                          	GLOBAL	dir_move_next
  1423                          	GLOBAL	dir_get_entry_type
  1423                          	GLOBAL	dir_get_entry_name
  1423                          	GLOBAL	dir_get_entry_size
  1423                          	GLOBAL	get_dir_name
  1423                          	GLOBAL	a_statusline
  1423                          	GLOBAL	a_keyspeed
  1423                          	GLOBAL	a_border
  1423                          	GLOBAL	a_paper
  1423                          	GLOBAL	a_ink
  1423                          	GLOBAL	a_curx
  1423                          	GLOBAL	a_cury
  1423                          	GLOBAL	a_machine
  1423                          	GLOBAL	a_machinever
  1423                          	GLOBAL	a_biosver
  1423                          	GLOBAL	a_memsize
  1423                          	GLOBAL	a_driveb
  1423                          	GLOBAL	a_serialport
  1423                          	GLOBAL	_gios_pb
  1423                          	GLOBAL	_gios_ctl
  1423                          	GLOBAL	_gios_intin
  1423                          	GLOBAL	_gios_ptsin
  1423                          	GLOBAL	_gios_intout
  1423                          	GLOBAL	_gios_ptsout
  1423                          	GLOBAL	gios
  1423                          	GLOBAL	gios_1pm
  1423                          	GLOBAL	gios_1pm_callee
  1423                          	GLOBAL	gios_2px
  1423                          	GLOBAL	gios_2px_callee
  1423                          	GLOBAL	gios_1px
  1423                          	GLOBAL	gios_1px_callee
  1423                          	GLOBAL	gios_text
  1423                          	GLOBAL	gios_esc
  1423                          	GLOBAL	open
  1423                          	GLOBAL	creat
  1423                          	GLOBAL	close
  1423                          	GLOBAL	read
  1423                          	GLOBAL	write
  1423                          	GLOBAL	lseek
  1423                          	GLOBAL	readbyte
  1423                          	GLOBAL	writebyte
  1423                          	GLOBAL	getcwd
  1423                          	GLOBAL	chdir
  1423                          	GLOBAL	getwd
  1423                          	GLOBAL	rmdir
  1423                          	GLOBAL	__RND_BLOCKSIZE
  1423                          	GLOBAL	rnd_loadblock
  1423                          	GLOBAL	rnd_saveblock
  1423                          	GLOBAL	rnd_erase
  1423                          	GLOBAL	__FOPEN_MAX
  1423                          	GLOBAL	__sgoioblk
  1423                          	GLOBAL	__sgoioblk_end
  1423                          	GLOBAL	fopen_zsock
  1423                          	GLOBAL	fileno
  1423                          	GLOBAL	fopen
  1423                          	GLOBAL	freopen
  1423                          	GLOBAL	fdopen
  1423                          	GLOBAL	_freopen1
  1423                          	GLOBAL	fmemopen
  1423                          	GLOBAL	funopen
  1423                          	GLOBAL	fclose
  1423                          	GLOBAL	fflush
  1423                          	GLOBAL	closeall
  1423                          	GLOBAL	fgets
  1423                          	GLOBAL	fputs
  1423                          	GLOBAL	fputc
  1423                          	GLOBAL	fputs_callee
  1423                          	GLOBAL	fputc_callee
  1423                          	GLOBAL	fgetc
  1423                          	GLOBAL	ungetc
  1423                          	GLOBAL	feof
  1423                          	GLOBAL	ferror
  1423                          	GLOBAL	puts
  1423                          	GLOBAL	ftell
  1423                          	GLOBAL	fgetpos
  1423                          	GLOBAL	fseek
  1423                          	GLOBAL	fread
  1423                          	GLOBAL	fwrite
  1423                          	GLOBAL	gets
  1423                          	GLOBAL	printf
  1423                          	GLOBAL	fprintf
  1423                          	GLOBAL	sprintf
  1423                          	GLOBAL	snprintf
  1423                          	GLOBAL	vfprintf
  1423                          	GLOBAL	vsnprintf
  1423                          	GLOBAL	printn
  1423                          	GLOBAL	scanf
  1423                          	GLOBAL	fscanf
  1423                          	GLOBAL	sscanf
  1423                          	GLOBAL	vfscanf
  1423                          	GLOBAL	vsscanf
  1423                          	GLOBAL	getarg
  1423                          	GLOBAL	fchkstd
  1423                          	GLOBAL	fgetc_cons
  1423                          	GLOBAL	fgetc_cons_inkey
  1423                          	GLOBAL	fputc_cons
  1423                          	GLOBAL	fgets_cons
  1423                          	GLOBAL	puts_cons
  1423                          	GLOBAL	fabandon
  1423                          	GLOBAL	fdtell
  1423                          	GLOBAL	fdgetpos
  1423                          	GLOBAL	rename
  1423                          	GLOBAL	remove
  1423                          	GLOBAL	getk
  1423                          	GLOBAL	getk_inkey
  1423                          	GLOBAL	printk
  1423                          	GLOBAL	perror
  1423                          	GLOBAL	set_fputc_cons
  1423                          	GLOBAL	fputc_cons_native
  1423                          	GLOBAL	fputc_cons_generic
  1423                          	GLOBAL	fputc_cons_ansi
  1423                          	GLOBAL	atoi
  1423                          	GLOBAL	atol
  1423                          	GLOBAL	itoa
  1423                          	GLOBAL	itoa_callee
  1423                          	GLOBAL	ltoa
  1423                          	GLOBAL	ltoa_callee
  1423                          	GLOBAL	strtol
  1423                          	GLOBAL	strtol_callee
  1423                          	GLOBAL	strtoul
  1423                          	GLOBAL	strtoul_callee
  1423                          	GLOBAL	ultoa
  1423                          	GLOBAL	ultoa_callee
  1423                          	GLOBAL	utoa
  1423                          	GLOBAL	utoa_callee
  1423                          	GLOBAL	rand
  1423                          	GLOBAL	srand
  1423                          	GLOBAL	mallinit
  1423                          	GLOBAL	sbrk
  1423                          	GLOBAL	sbrk_callee
  1423                          	GLOBAL	calloc
  1423                          	GLOBAL	calloc_callee
  1423                          	GLOBAL	free
  1423                          	GLOBAL	malloc
  1423                          	GLOBAL	realloc
  1423                          	GLOBAL	realloc_callee
  1423                          	GLOBAL	mallinfo
  1423                          	GLOBAL	mallinfo_callee
  1423                          	GLOBAL	HeapCreate
  1423                          	GLOBAL	HeapSbrk
  1423                          	GLOBAL	HeapSbrk_callee
  1423                          	GLOBAL	HeapCalloc
  1423                          	GLOBAL	HeapCalloc_callee
  1423                          	GLOBAL	HeapFree
  1423                          	GLOBAL	HeapFree_callee
  1423                          	GLOBAL	HeapAlloc
  1423                          	GLOBAL	HeapAlloc_callee
  1423                          	GLOBAL	HeapRealloc
  1423                          	GLOBAL	HeapRealloc_callee
  1423                          	GLOBAL	HeapInfo
  1423                          	GLOBAL	HeapInfo_callee
  1423                          	GLOBAL	exit
  1423                          	GLOBAL	atexit
  1423                          	GLOBAL	getenv
  1423                          	GLOBAL	getenv_r
  1423                          	GLOBAL	setenv
  1423                          	GLOBAL	unsetenv
  1423                          	GLOBAL	getopt
  1423                          	GLOBAL	_optarg
  1423                          	GLOBAL	_opterr
  1423                          	GLOBAL	_optind
  1423                          	GLOBAL	_optopt
  1423                          	GLOBAL	_optreset
  1423                          	GLOBAL	l_bsearch
  1423                          	GLOBAL	l_bsearch_callee
  1423                          	GLOBAL	l_qsort
  1423                          	GLOBAL	l_qsort_callee
  1423                          	GLOBAL	qsort_sccz80
  1423                          	GLOBAL	qsort_sccz80_callee
  1423                          	GLOBAL	qsort_sdcc
  1423                          	GLOBAL	qsort_sdcc_callee
  1423                          	GLOBAL	_div_
  1423                          	GLOBAL	_div__callee
  1423                          	GLOBAL	_divu_
  1423                          	GLOBAL	_divu__callee
  1423                          	GLOBAL	_ldiv_
  1423                          	GLOBAL	_ldiv__callee
  1423                          	GLOBAL	_ldivu_
  1423                          	GLOBAL	_ldivu__callee
  1423                          	GLOBAL	abs
  1423                          	GLOBAL	labs
  1423                          	GLOBAL	isqrt
  1423                          	GLOBAL	inp
  1423                          	GLOBAL	outp
  1423                          	GLOBAL	outp_callee
  1423                          	GLOBAL	swapendian
  1423                          	GLOBAL	bpoke
  1423                          	GLOBAL	bpoke_callee
  1423                          	GLOBAL	wpoke
  1423                          	GLOBAL	wpoke_callee
  1423                          	GLOBAL	bpeek
  1423                          	GLOBAL	wpeek
  1423                          	GLOBAL	t_delay
  1423                          	GLOBAL	sleep
  1423                          	GLOBAL	msleep
  1423                          	GLOBAL	extract_bits
  1423                          	GLOBAL	extract_bits_callee
  1423                          	GLOBAL	wcmatch
  1423                          	GLOBAL	unbcd
  1423                          	GLOBAL	time
  1423                          	GLOBAL	gmtime
  1423                          	GLOBAL	localtime
  1423                          	GLOBAL	mktime
  1423                          	GLOBAL	asctime
  1423                          	GLOBAL	ctime
  1423                          	GLOBAL	clock
  1423                          	GLOBAL	_FRAMES
  1423                          	GLOBAL	dostm_from_tm
  1423                          	GLOBAL	dostm_from_tm_callee
  1423                          	GLOBAL	tm_from_dostm
  1423                          	GLOBAL	tm_from_dostm_callee
  1423                          	GLOBAL	bit_open
  1423                          	GLOBAL	bit_open_di
  1423                          	GLOBAL	bit_close
  1423                          	GLOBAL	bit_close_ei
  1423                          	GLOBAL	bit_click
  1423                          	GLOBAL	bit_fx
  1423                          	GLOBAL	bit_fx2
  1423                          	GLOBAL	bit_fx3
  1423                          	GLOBAL	bit_fx4
  1423                          	GLOBAL	bit_fx5
  1423                          	GLOBAL	bit_fx6
  1423                          	GLOBAL	bit_fx7
  1423                          	GLOBAL	bit_synth
  1423                          	GLOBAL	bit_beep
  1423                          	GLOBAL	bit_beep_callee
  1423                          	GLOBAL	bit_noise
  1423                          	GLOBAL	bit_noise_callee
  1423                          	GLOBAL	patch_beep
  1423                          	GLOBAL	patch_beep_callee
  1423                          	GLOBAL	bit_frequency
  1423                          	GLOBAL	bit_play
  1423                          	GLOBAL	psg_play
  1423                          	GLOBAL	synth_phase
  1423                          	GLOBAL	_synth_phase_1
  1423                          	GLOBAL	_synth_phase_2
  1423                          	GLOBAL	_synth_phase_3
  1423                          	GLOBAL	_synth_phase_4
  1423                          	GLOBAL	synth_play
  1423                          	GLOBAL	buzzer_play
  1423                          	GLOBAL	playzb4
  1423                          	GLOBAL	bit_beepfx
  1423                          	GLOBAL	_bfx_0
  1423                          	GLOBAL	_bfx_1
  1423                          	GLOBAL	_bfx_2
  1423                          	GLOBAL	_bfx_3
  1423                          	GLOBAL	_bfx_4
  1423                          	GLOBAL	_bfx_5
  1423                          	GLOBAL	_bfx_6
  1423                          	GLOBAL	_bfx_7
  1423                          	GLOBAL	_bfx_8
  1423                          	GLOBAL	_bfx_9
  1423                          	GLOBAL	_bfx_10
  1423                          	GLOBAL	_bfx_11
  1423                          	GLOBAL	_bfx_12
  1423                          	GLOBAL	_bfx_13
  1423                          	GLOBAL	_bfx_14
  1423                          	GLOBAL	_bfx_15
  1423                          	GLOBAL	_bfx_16
  1423                          	GLOBAL	_bfx_17
  1423                          	GLOBAL	_bfx_18
  1423                          	GLOBAL	_bfx_19
  1423                          	GLOBAL	_bfx_20
  1423                          	GLOBAL	_bfx_21
  1423                          	GLOBAL	_bfx_22
  1423                          	GLOBAL	_bfx_23
  1423                          	GLOBAL	_bfx_24
  1423                          	GLOBAL	_bfx_25
  1423                          	GLOBAL	_bfx_26
  1423                          	GLOBAL	_bfx_27
  1423                          	GLOBAL	_bfx_28
  1423                          	GLOBAL	_bfx_29
  1423                          	GLOBAL	_bfx_30
  1423                          	GLOBAL	_bfx_31
  1423                          	GLOBAL	_bfx_32
  1423                          	GLOBAL	_bfx_33
  1423                          	GLOBAL	_bfx_34
  1423                          	GLOBAL	_bfx_35
  1423                          	GLOBAL	_bfx_36
  1423                          	GLOBAL	_bfx_37
  1423                          	GLOBAL	_bfx_38
  1423                          	GLOBAL	_bfx_39
  1423                          	GLOBAL	_bfx_40
  1423                          	GLOBAL	_bfx_41
  1423                          	GLOBAL	_bfx_42
  1423                          	GLOBAL	_bfx_43
  1423                          	GLOBAL	_bfx_44
  1423                          	GLOBAL	_bfx_45
  1423                          	GLOBAL	_bfx_46
  1423                          	GLOBAL	_bfx_47
  1423                          	GLOBAL	_bfx_48
  1423                          	GLOBAL	_bfx_49
  1423                          	GLOBAL	_bfx_50
  1423                          	GLOBAL	_bfx_51
  1423                          	GLOBAL	_bfx_52
  1423                          	GLOBAL	_bfx_53
  1423                          	GLOBAL	_bfx_54
  1423                          	GLOBAL	_bfx_55
  1423                          	GLOBAL	_bfx_56
  1423                          	GLOBAL	_bfx_57
  1423                          	GLOBAL	bksave
  1423                          	GLOBAL	bkrestore
  1423                          	GLOBAL	getsprite
  1423                          	GLOBAL	putsprite
  1423                          	GLOBAL	putsprite_callee
  1423                          	GLOBAL	joystick
  1423                          	GLOBAL	joystick_sc
  1423                          	GLOBAL	kjoystick
  1423                          	GLOBAL	_joystick_type
  1423                          	GLOBAL	bcmp
  1423                          	GLOBAL	bcmp_callee
  1423                          	GLOBAL	bcopy
  1423                          	GLOBAL	bcopy_callee
  1423                          	GLOBAL	bzero
  1423                          	GLOBAL	bzero_callee
  1423                          	GLOBAL	index
  1423                          	GLOBAL	index_callee
  1423                          	GLOBAL	rindex
  1423                          	GLOBAL	rindex_callee
  1423                          	GLOBAL	strset
  1423                          	GLOBAL	strset_callee
  1423                          	GLOBAL	strnset
  1423                          	GLOBAL	strnset_callee
  1423                          	GLOBAL	rawmemchr
  1423                          	GLOBAL	rawmemchr_callee
  1423                          	GLOBAL	_memlwr_
  1423                          	GLOBAL	_memlwr__callee
  1423                          	GLOBAL	_memstrcpy_
  1423                          	GLOBAL	_memstrcpy__callee
  1423                          	GLOBAL	_memupr_
  1423                          	GLOBAL	_memupr__callee
  1423                          	GLOBAL	_strrstrip_
  1423                          	GLOBAL	ffs
  1423                          	GLOBAL	ffsl
  1423                          	GLOBAL	memccpy
  1423                          	GLOBAL	memccpy_callee
  1423                          	GLOBAL	memchr
  1423                          	GLOBAL	memchr_callee
  1423                          	GLOBAL	memcmp
  1423                          	GLOBAL	memcmp_callee
  1423                          	GLOBAL	memcpy
  1423                          	GLOBAL	memcpy_callee
  1423                          	GLOBAL	memmem
  1423                          	GLOBAL	memmem_callee
  1423                          	GLOBAL	memmove
  1423                          	GLOBAL	memmove_callee
  1423                          	GLOBAL	memrchr
  1423                          	GLOBAL	memrchr_callee
  1423                          	GLOBAL	memset
  1423                          	GLOBAL	memset_callee
  1423                          	GLOBAL	memset_wr
  1423                          	GLOBAL	memset_wr_callee
  1423                          	GLOBAL	memswap
  1423                          	GLOBAL	memswap_callee
  1423                          	GLOBAL	stpcpy
  1423                          	GLOBAL	stpcpy_callee
  1423                          	GLOBAL	stpncpy
  1423                          	GLOBAL	stpncpy_callee
  1423                          	GLOBAL	strcasecmp
  1423                          	GLOBAL	strcasecmp_callee
  1423                          	GLOBAL	strcat
  1423                          	GLOBAL	strcat_callee
  1423                          	GLOBAL	strchr
  1423                          	GLOBAL	strchr_callee
  1423                          	GLOBAL	strchrnul
  1423                          	GLOBAL	strchrnul_callee
  1423                          	GLOBAL	strcmp
  1423                          	GLOBAL	strcmp_callee
  1423                          	GLOBAL	strcoll
  1423                          	GLOBAL	strcoll_callee
  1423                          	GLOBAL	strcpy
  1423                          	GLOBAL	strcpy_callee
  1423                          	GLOBAL	strcspn
  1423                          	GLOBAL	strcspn_callee
  1423                          	GLOBAL	strdup
  1423                          	GLOBAL	strerror
  1423                          	GLOBAL	stricmp
  1423                          	GLOBAL	stricmp_callee
  1423                          	GLOBAL	strlcat
  1423                          	GLOBAL	strlcat_callee
  1423                          	GLOBAL	strlcpy
  1423                          	GLOBAL	strlcpy_callee
  1423                          	GLOBAL	strlen
  1423                          	GLOBAL	strlwr
  1423                          	GLOBAL	strncasecmp
  1423                          	GLOBAL	strncasecmp_callee
  1423                          	GLOBAL	strncat
  1423                          	GLOBAL	strncat_callee
  1423                          	GLOBAL	strnchr
  1423                          	GLOBAL	strnchr_callee
  1423                          	GLOBAL	strncmp
  1423                          	GLOBAL	strncmp_callee
  1423                          	GLOBAL	strncpy
  1423                          	GLOBAL	strncpy_callee
  1423                          	GLOBAL	strndup
  1423                          	GLOBAL	strndup_callee
  1423                          	GLOBAL	strnicmp
  1423                          	GLOBAL	strnicmp_callee
  1423                          	GLOBAL	strnlen
  1423                          	GLOBAL	strnlen_callee
  1423                          	GLOBAL	strpbrk
  1423                          	GLOBAL	strpbrk_callee
  1423                          	GLOBAL	strrchr
  1423                          	GLOBAL	strrchr_callee
  1423                          	GLOBAL	strrcspn
  1423                          	GLOBAL	strrcspn_callee
  1423                          	GLOBAL	strrev
  1423                          	GLOBAL	strrspn
  1423                          	GLOBAL	strrspn_callee
  1423                          	GLOBAL	strrstrip
  1423                          	GLOBAL	strsep
  1423                          	GLOBAL	strsep_callee
  1423                          	GLOBAL	strspn
  1423                          	GLOBAL	strspn_callee
  1423                          	GLOBAL	strstr
  1423                          	GLOBAL	strstr_callee
  1423                          	GLOBAL	strstrip
  1423                          	GLOBAL	strtok
  1423                          	GLOBAL	strtok_callee
  1423                          	GLOBAL	strtok_r
  1423                          	GLOBAL	strtok_r_callee
  1423                          	GLOBAL	strupr
  1423                          	GLOBAL	strxfrm
  1423                          	GLOBAL	strxfrm_callee
  1423                          	GLOBAL	strrstr
  1423                          	GLOBAL	strrstr_callee
  1423                          	GLOBAL	memopi
  1423                          	GLOBAL	memopi_callee
  1423                          	GLOBAL	memopd
  1423                          	GLOBAL	memopd_callee
  1423                          	GLOBAL	__builtin_memset
  1423                          	GLOBAL	__builtin_memcpy
  1423                          	GLOBAL	__builtin_strcpy
  1423                          	GLOBAL	__builtin_strchr
  1423                          	GLOBAL	__x_proportional
  1423                          	GLOBAL	__y_proportional
  1423                          	GLOBAL	__xchar_proportional
  1423                          	GLOBAL	__X_int1
  1423                          	GLOBAL	__X_int2
  1423                          	GLOBAL	__X_int3
  1423                          	GLOBAL	__x_must_expose
  1423                          	GLOBAL	XOpenDisplay
  1423                          	GLOBAL	XCloseDisplay
  1423                          	GLOBAL	DefaultScreen
  1423                          	GLOBAL	RootWindow
  1423                          	GLOBAL	XCreateSimpleWindow
  1423                          	GLOBAL	XDestroyWindow
  1423                          	GLOBAL	XCreateGC
  1423                          	GLOBAL	XFreeGC
  1423                          	GLOBAL	XDisplayName
  1423                          	GLOBAL	DisplayWidth
  1423                          	GLOBAL	DisplayHeight
  1423                          	GLOBAL	DefaultDepth
  1423                          	GLOBAL	BlackPixel
  1423                          	GLOBAL	WhitePixel
  1423                          	GLOBAL	XMapWindow
  1423                          	GLOBAL	XSetForeground
  1423                          	GLOBAL	XSetLineAttributes
  1423                          	GLOBAL	XSetDashes
  1423                          	GLOBAL	XSetStandardProperties
  1423                          	GLOBAL	XSelectInput
  1423                          	GLOBAL	XNextEvent
  1423                          	GLOBAL	XCheckWindowEvent
  1423                          	GLOBAL	XCheckTypedEvent
  1423                          	GLOBAL	XFlush
  1423                          	GLOBAL	XTextWidth
  1423                          	GLOBAL	XLoadQueryFont
  1423                          	GLOBAL	XDrawString
  1423                          	GLOBAL	XUnloadFont
  1423                          	GLOBAL	XSetFont
  1423                          	GLOBAL	XCreateBitmapFromData
  1423                          	GLOBAL	XDrawRectangle
  1423                          	GLOBAL	XDrawPoint
  1423                          	GLOBAL	XDrawLine
  1423                          	GLOBAL	XClearWindow
  1423                          	GLOBAL	_xfindchar
  1423                          	GLOBAL	_xfputc
  1423                          	GLOBAL	textcolor
  1423                          	GLOBAL	textbackground
  1423                          	GLOBAL	wherex
  1423                          	GLOBAL	wherey
  1423                          	GLOBAL	gotoxy
  1423                          	GLOBAL	gotoxy_callee
  1423                          	GLOBAL	screensize
  1423                          	GLOBAL	screensize_callee
  1423                          	GLOBAL	cprintf
  1423                          	GLOBAL	cputs
  1423                          	GLOBAL	cgets
  1423                          	GLOBAL	kbhit
  1423                          	GLOBAL	getch
  1423                          	GLOBAL	cvpeek
  1423                          	GLOBAL	cvpeekr
  1423                          	GLOBAL	bordercolor
  1423                          	GLOBAL	isalnum
  1423                          	GLOBAL	isalpha
  1423                          	GLOBAL	isascii
  1423                          	GLOBAL	isbdigit
  1423                          	GLOBAL	iscntrl
  1423                          	GLOBAL	isdigit
  1423                          	GLOBAL	isgraph
  1423                          	GLOBAL	isupper
  1423                          	GLOBAL	islower
  1423                          	GLOBAL	isodigit
  1423                          	GLOBAL	isoob
  1423                          	GLOBAL	isprint
  1423                          	GLOBAL	ispunct
  1423                          	GLOBAL	isspace
  1423                          	GLOBAL	isxdigit
  1423                          	GLOBAL	toascii
  1423                          	GLOBAL	tolower
  1423                          	GLOBAL	toupper
  1423                          	GLOBAL	_BITMAP_TEST
  1423                          	GLOBAL	_GLYPH_TEST
  1423                          	GLOBAL	_esp0_outbyte
  1423                          	GLOBAL	_esp0_inbytewait
  1423                          	GLOBAL	_esp0_outstruct
  1423                          	GLOBAL	_esp0_outlong
  1423                          	GLOBAL	_esp0_outint
  1423                          	GLOBAL	_esp1_outbyte
  1423                          	GLOBAL	_esp1_inbytewait
  1423                          	GLOBAL	_esp1_outstruct
  1423                          	GLOBAL	_esp1_outlong
  1423                          	GLOBAL	_esp1_outint
  1423                          	GLOBAL	_printcentered
  1423                          	GLOBAL	_printcenteredbold
  1423                          	GLOBAL	_printmenu
  1423                          	GLOBAL	_printmessage
  1423                          	GLOBAL	_getstring
  1423                          	GLOBAL	_getlong
  1423                          	GLOBAL	_getint
  1423                          	GLOBAL	_getbyte
  1423                          	GLOBAL	_send_char_test
  1423                          	GLOBAL	_send_100_char_test
  1423                          	GLOBAL	_send_string_test
  1423                          	GLOBAL	_get_key_test
  1423                          	GLOBAL	_get_key_buffer_len_test
  1423                          	GLOBAL	_cursor_visibility_test
  1423                          	GLOBAL	_serial_baud_rate_test
  1423                          	GLOBAL	_serial_mode_test
  1423                          	GLOBAL	_serial_tx_single_char_test
  1423                          	GLOBAL	_serial_tx_string_test
  1423                          	GLOBAL	_serial_rx_test
  1423                          	GLOBAL	_serial_length_test
  1423                          	GLOBAL	_serial2_baud_rate_test
  1423                          	GLOBAL	_serial2_mode_test
  1423                          	GLOBAL	_serial2_tx_single_char_test
  1423                          	GLOBAL	_serial2_tx_string_test
  1423                          	GLOBAL	_serial2_rx_test
  1423                          	GLOBAL	_serial2_length_test
  1423                          	GLOBAL	_play_string_test
  1423                          	GLOBAL	_play_sound_test
  1423                          	GLOBAL	_set_volume_test
  1423                          	GLOBAL	_cpm_ver
  1423                          	GLOBAL	_clear_screen_test
  1423                          	GLOBAL	_set_resolution_test
  1423                          	GLOBAL	_set_font_test
  1423                          	GLOBAL	_copy_rectangle_test
  1423                          	GLOBAL	_draw_bitmap_test
  1423                          	GLOBAL	_draw_char_test
  1423                          	GLOBAL	_draw_ellipse_test
  1423                          	GLOBAL	_draw_glyph_test
  1423                          	GLOBAL	_draw_line_test
  1423                          	GLOBAL	_draw_rectangle_test
  1423                          	GLOBAL	_fill_ellipse_test
  1423                          	GLOBAL	_fill_rectangle_test
  1423                          	GLOBAL	_get_pixel_test
  1423                          	GLOBAL	_invert_rectangle_test
  1423                          	GLOBAL	_draw_line_to_test
  1423                          	GLOBAL	_move_cursor_to_test
  1423                          	GLOBAL	_scroll_test
  1423                          	GLOBAL	_set_brush_color_test
  1423                          	GLOBAL	_set_line_end_test
  1423                          	GLOBAL	_set_pen_color_test
  1423                          	GLOBAL	_set_pen_width_test
  1423                          	GLOBAL	_set_pixel_test
  1423                          	GLOBAL	_set_glyph_options_test
  1423                          	GLOBAL	_set_palette_item_test
  1423                          	GLOBAL	_set_mouse_cursor_test
  1423                          	GLOBAL	_set_mouse_cursor_position_test
  1423                          	GLOBAL	_remove_sprites_test
  1423                          	GLOBAL	_set_sprite_map_test
  1423                          	GLOBAL	_set_sprite_location_test
  1423                          	GLOBAL	_set_sprite_visibility_test
  1423                          	GLOBAL	_set_wifi_ssid_test
  1423                          	GLOBAL	_set_wifi_password_test
  1423                          	GLOBAL	_connect_to_wifi_test
  1423                          	GLOBAL	_get_wifi_status_test
  1423                          	GLOBAL	_get_wifi_signal_strength_test
  1423                          	GLOBAL	_get_ip_address_test
  1423                          	GLOBAL	_get_subnet_mask_test
  1423                          	GLOBAL	_get_gateway_test
  1423                          	GLOBAL	_get_primary_dns_test
  1423                          	GLOBAL	_get_secondary_dns_test
  1423                          	GLOBAL	_set_ip_address_test
  1423                          	GLOBAL	_set_subnet_mask_test
  1423                          	GLOBAL	_set_gateway_test
  1423                          	GLOBAL	_set_primary_dns_test
  1423                          	GLOBAL	_set_secondary_dns_test
  1423                          	GLOBAL	_set_hostname_test
  1423                          	GLOBAL	_set_incoming_port_test
  1423                          	GLOBAL	_out_byte_to_connection_test
  1423                          	GLOBAL	_out_string_to_connection_test
  1423                          	GLOBAL	_in_byte_from_connection_test
  1423                          	GLOBAL	_queue_length_from_connection_test
  1423                          	GLOBAL	_set_byte_mode_test
  1423                          	GLOBAL	_create_tcp_connection_test
  1423                          	GLOBAL	_menu_page1
  1423                          	GLOBAL	_menu_page2
  1423                          	GLOBAL	_menu_page3
  1423                          	GLOBAL	_main
  1423                          
  1423                          
  1423                          ; --- End of Scope Defns ---
  1423                          
  1423                          
  1423                          ; --- End of Compilation ---
  1423                          
