Stack Allocation = 4096 bytes

 Start  Stop   Length Name                   Class
 00000H 01967H 01968H _TEXT                  CODE
 01970H 01971H 00002H EMULATOR_TEXT          CODE
 01972H 01972H 00000H C_ETEXT                ENDCODE
 01980H 01980H 00000H EMULATOR_DATA          FAR_DATA
 01980H 01D81H 00402H FAR_BSS                FAR_BSS
 01D90H 01DD1H 00042H NULL                   BEGDATA
 01DE0H 01E6DH 0008EH _DATA                  DATA
 01E6EH 01E6FH 00002H XIQC                   DATA
 01E70H 01E7BH 0000CH DBDATA                 DATA
 01E7CH 01E89H 0000EH CDATA                  DATA
 01E8AH 01E8AH 00000H XIFB                   DATA
 01E8AH 01E8AH 00000H XIF                    DATA
 01E8AH 01E8AH 00000H XIFE                   DATA
 01E8AH 01E8AH 00000H XIB                    DATA
 01E8AH 01E8AH 00000H XI                     DATA
 01E8AH 01E8AH 00000H XIE                    DATA
 01E8AH 01E8AH 00000H XPB                    DATA
 01E8AH 01E8AH 00000H XP                     DATA
 01E8AH 01E8AH 00000H XPE                    DATA
 01E8AH 01E8AH 00000H XCB                    DATA
 01E8AH 01E8AH 00000H XC                     DATA
 01E8AH 01E8AH 00000H XCE                    DATA
 01E8AH 01E8AH 00000H XCFB                   DATA
 01E8AH 01E8AH 00000H XCFCRT                 DATA
 01E8AH 01E8AH 00000H XCF                    DATA
 01E8AH 01E8AH 00000H XCFE                   DATA
 01E8AH 01E8AH 00000H XIFCB                  DATA
 01E8AH 01E8AH 00000H XIFU                   DATA
 01E8AH 01E8AH 00000H XIFL                   DATA
 01E8AH 01E8AH 00000H XIFM                   DATA
 01E8AH 01E8AH 00000H XIFCE                  DATA
 01E8AH 01E8BH 00002H CONST                  CONST
 01E8CH 01E93H 00008H HDR                    MSG
 01E94H 01F69H 000D6H MSG                    MSG
 01F6AH 01F6BH 00002H PAD                    MSG
 01F6CH 01F6CH 00001H EPAD                   MSG
 01F70H 01F70H 00000H _BSS                   BSS
 01F70H 01F70H 00000H XOB                    BSS
 01F70H 01F70H 00000H XO                     BSS
 01F70H 01F70H 00000H XOE                    BSS
 01F70H 01F70H 00000H XOFB                   BSS
 01F70H 01F70H 00000H XOF                    BSS
 01F70H 01F70H 00000H XOFE                   BSS
 01F70H 01F70H 00000H c_common               BSS
 01F70H 02F6FH 01000H STACK                  STACK

 Origin   Group
 01D9:0   DGROUP

  Address         Publics by Name

 01D9:01E0       _edata
 01D9:01E0       _end
 01D9:008C       _errno
 0000:12BB       _exit
 0198:0002       _ins
 0198:0000       _length
 0000:0010       _main
 0000:00B0       _unasm
 0000:0060       _unasm_msg
 01D9:0070       __acfinfo
 0000:9876  Abs  __acrtmsg
 0000:9876  Abs  __acrtused
 0000:D6D6  Abs  __aDBdoswp
 01D9:00C8       __adbgmsg
 01D9:0052       __aexit_rtn
 01D9:007E       __aintdiv
 01D9:00CC       __amblksiz
 0000:11C7       __amsg_exit
 01D9:0042       __anullsize
 01D9:006A       __aseghi
 01D9:006C       __aseglo
 01D9:0054       __asizds
 0000:10F4       __astart
 01D9:0050       __atopsp
 0000:12CA       __cexit
 01D9:00BF       __child
 0000:11F2       __cinit
 0000:11B8       __cintDIV
 01D9:0097       __cpumode
 0000:1349       __ctermsub
 0000:12D4       __c_exit
 0000:11F0       __dataseg
 01D9:0098       __doserrno
 01D9:0094       __dosvermajor
 01D9:0095       __dosverminor
 01D9:01E0       __edata
 0197:0000       __EmDataSeg
 01D9:01E0       __end
 01D9:00B6       __environ
 0000:12C2       __exit
 01D9:00C7       __exitflag
 01D9:0082       __fac
 0000:1648       __farstub
 01D9:006E       __fDosExt
 0000:1796       __ffree
 0000:1384       __FF_MSGBANNER
 01D9:00D0       __fheap
 0000:1776       __findlast
 0000:17A9       __fmalloc
 01D9:00EE       __fpinit
 0000:164A       __fptrap
 0000:1696       __growseg
 0000:1725       __incseg
 0000:18FE       __initseg
 01D9:00C2       __intno
 0000:1932       __linkseg
 0000:1672       __myalloc
 0000:18BA       __newseg
 01D9:009A       __nfile
 01D9:0056       __nheap_desc
 0000:15E8       __NMSG_TEXT
 0000:1613       __NMSG_WRITE
 0000:1650       __nullcheck
 01D9:0098       __oserr
 01D9:009C       __osfile
 01D9:0094       __osmajor
 01D9:0095       __osminor
 01D9:0096       __osmode
 01D9:0094       __osversion
 01D9:00C1       __ovlflag
 01D9:00C3       __ovlvec
 01D9:00BA       __pgmptr
 01D9:00CE       __pnhFarHeap
 01D9:0092       __psp
 01D9:0090       __pspadr
 0000:183E       __searchseg
 0000:13A4       __setargv
 0000:1548       __setenvp
 01D9:008E       __umaskval
 01D9:00E6       ___aDBexit
 01D9:00E4       ___aDBrterr
 01D9:00E2       ___aDBswpchk
 01D9:00E0       ___aDBswpflg
 01D9:00B0       ___argc
 01D9:00B2       ___argv
 01D9:00DE       ___qczrinit

  Address         Publics by Value

 0000:0010       _main
 0000:0060       _unasm_msg
 0000:00B0       _unasm
 0000:10F4       __astart
 0000:11B8       __cintDIV
 0000:11C7       __amsg_exit
 0000:11F0       __dataseg
 0000:11F2       __cinit
 0000:12BB       _exit
 0000:12C2       __exit
 0000:12CA       __cexit
 0000:12D4       __c_exit
 0000:1349       __ctermsub
 0000:1384       __FF_MSGBANNER
 0000:13A4       __setargv
 0000:1548       __setenvp
 0000:15E8       __NMSG_TEXT
 0000:1613       __NMSG_WRITE
 0000:1648       __farstub
 0000:164A       __fptrap
 0000:1650       __nullcheck
 0000:1672       __myalloc
 0000:1696       __growseg
 0000:1725       __incseg
 0000:1776       __findlast
 0000:1796       __ffree
 0000:17A9       __fmalloc
 0000:183E       __searchseg
 0000:18BA       __newseg
 0000:18FE       __initseg
 0000:1932       __linkseg
 0197:0000       __EmDataSeg
 0198:0000       _length
 0198:0002       _ins
 01D9:0042       __anullsize
 01D9:0050       __atopsp
 01D9:0052       __aexit_rtn
 01D9:0054       __asizds
 01D9:0056       __nheap_desc
 01D9:006A       __aseghi
 01D9:006C       __aseglo
 01D9:006E       __fDosExt
 01D9:0070       __acfinfo
 01D9:007E       __aintdiv
 01D9:0082       __fac
 01D9:008C       _errno
 01D9:008E       __umaskval
 01D9:0090       __pspadr
 01D9:0092       __psp
 01D9:0094       __osversion
 01D9:0094       __dosvermajor
 01D9:0094       __osmajor
 01D9:0095       __dosverminor
 01D9:0095       __osminor
 01D9:0096       __osmode
 01D9:0097       __cpumode
 01D9:0098       __doserrno
 01D9:0098       __oserr
 01D9:009A       __nfile
 01D9:009C       __osfile
 01D9:00B0       ___argc
 01D9:00B2       ___argv
 01D9:00B6       __environ
 01D9:00BA       __pgmptr
 01D9:00BF       __child
 01D9:00C1       __ovlflag
 01D9:00C2       __intno
 01D9:00C3       __ovlvec
 01D9:00C7       __exitflag
 01D9:00C8       __adbgmsg
 01D9:00CC       __amblksiz
 01D9:00CE       __pnhFarHeap
 01D9:00D0       __fheap
 01D9:00DE       ___qczrinit
 01D9:00E0       ___aDBswpflg
 01D9:00E2       ___aDBswpchk
 01D9:00E4       ___aDBrterr
 01D9:00E6       ___aDBexit
 01D9:00EE       __fpinit
 01D9:01E0       __end
 01D9:01E0       __edata
 01D9:01E0       _end
 01D9:01E0       _edata
 0000:9876  Abs  __acrtmsg
 0000:9876  Abs  __acrtused
 0000:D6D6  Abs  __aDBdoswp

Program entry point at 0000:10F4
